       Line     Address      Opcode      Label              DisAssy           
        1    0000         3180                  MOVLP 0x0                     
        2    0001         281F                  GOTO 0x1F                     
        3    0002         3FFF                  MOVWI [-1]FSR1                
        4    0003         0008                  RETURN                        
        5    0004         3180                  MOVLP 0x0                     
        6    0005         0020                  MOVLB 0x0                     
        7    0006         0820                  MOVF 0x20, W                  
        8    0007         3A0B                  XORLW 0xB                     
        9    0008         1903                  BTFSC STATUS, 0x2             
       10    0009         281C                  GOTO 0x1C                     
       11    000A         1E91                  BTFSS PIR1, 0x5               
       12    000B         0009                  RETFIE                        
       13    000C         3188                  MOVLP 0x8                     
       14    000D         2037                  CALL 0x37                     
       15    000E         3180                  MOVLP 0x0                     
       16    000F         0020                  MOVLB 0x0                     
       17    0010         1291                  BCF PIR1, 0x5                 
       18    0011         0021                  MOVLB 0x1                     
       19    0012         1C49                  BTFSS 0xC9, 0x0               
       20    0013         0009                  RETFIE                        
       21    0014         0020                  MOVLB 0x0                     
       22    0015         0851                  MOVF 0x51, W                  
       23    0016         3A03                  XORLW 0x3                     
       24    0017         1D03                  BTFSS STATUS, 0x2             
       25    0018         0009                  RETFIE                        
       26    0019         3004                  MOVLW 0x4                     
       27    001A         00D1                  MOVWF 0x51                    
       28    001B         0009                  RETFIE                        
       29    001C         31B8                  MOVLP 0x38                    
       30    001D         2804                  GOTO 0x4                      
       31    001E         0009                  RETFIE                        
       32    001F         3182                  MOVLP 0x2                     
       33    0020         2A21                  GOTO 0x221                    
       34    0021         2985                  GOTO 0x185                    
       35    0022         0022                  MOVLB 0x2                     
       36    0023         120D                  BCF LATB, 0x4                 
       37    0024         0021                  MOVLB 0x1                     
       38    0025         1C49                  BTFSS 0xC9, 0x0               
       39    0026         282B                  GOTO 0x2B                     
       40    0027         25C0                  CALL 0x5C0                    
       41    0028         3180                  MOVLP 0x0                     
       42    0029         0021                  MOVLB 0x1                     
       43    002A         1049                  BCF 0xC9, 0x0                 
       44    002B         0020                  MOVLB 0x0                     
       45    002C         084D                  MOVF 0x4D, W                  
       46    002D         3A02                  XORLW 0x2                     
       47    002E         1D03                  BTFSS STATUS, 0x2             
       48    002F         2834                  GOTO 0x34                     
       49    0030         0022                  MOVLB 0x2                     
       50    0031         0861                  MOVF 0x161, W                 
       51    0032         0021                  MOVLB 0x1                     
       52    0033         00D9                  MOVWF 0xD9                    
       53    0034         0020                  MOVLB 0x0                     
       54    0035         0B3B                  DECFSZ 0x3B, W                
       55    0036         284A                  GOTO 0x4A                     
       56    0037         0021                  MOVLB 0x1                     
       57    0038         085A                  MOVF 0xDA, W                  
       58    0039         3A03                  XORLW 0x3                     
       59    003A         1D03                  BTFSS 0x83, 0x2               
       60    003B         284A                  GOTO 0x4A                     
       61    003C         0020                  MOVLB 0x0                     
       62    003D         084D                  MOVF 0x4D, W                  
       63    003E         3A03                  XORLW 0x3                     
       64    003F         1903                  BTFSC STATUS, 0x2             
       65    0040         284A                  GOTO 0x4A                     
       66    0041         084D                  MOVF 0x4D, W                  
       67    0042         3A04                  XORLW 0x4                     
       68    0043         1903                  BTFSC STATUS, 0x2             
       69    0044         284A                  GOTO 0x4A                     
       70    0045         0021                  MOVLB 0x1                     
       71    0046         3002                  MOVLW 0x2                     
       72    0047         01DA                  CLRF 0xDA                     
       73    0048         0020                  MOVLB 0x0                     
       74    0049         00BB                  MOVWF 0x3B                    
       75    004A         0020                  MOVLB 0x0                     
       76    004B         084D                  MOVF 0x4D, W                  
       77    004C         0021                  MOVLB 0x1                     
       78    004D         00DA                  MOVWF 0xDA                    
       79    004E         285A                  GOTO 0x5A                     
       80    004F         0843                  MOVF 0xC3, W                  
       81    0050         3A7D                  XORLW 0x7D                    
       82    0051         1D03                  BTFSS 0x83, 0x2               
       83    0052         2869                  GOTO 0x69                     
       84    0053         3003                  MOVLW 0x3                     
       85    0054         00D1                  MOVWF 0xD1                    
       86    0055         2869                  GOTO 0x69                     
       87    0056         0B54                  DECFSZ 0xD4, W                
       88    0057         2869                  GOTO 0x69                     
       89    0058         01D1                  CLRF 0xD1                     
       90    0059         2869                  GOTO 0x69                     
       91    005A         0020                  MOVLB 0x0                     
       92    005B         0851                  MOVF 0x51, W                  
       93    005C         3A00                  XORLW 0x0                     
       94    005D         1903                  BTFSC STATUS, 0x2             
       95    005E         2869                  GOTO 0x69                     
       96    005F         3A02                  XORLW 0x2                     
       97    0060         1903                  BTFSC STATUS, 0x2             
       98    0061         284F                  GOTO 0x4F                     
       99    0062         3A01                  XORLW 0x1                     
      100    0063         1903                  BTFSC STATUS, 0x2             
      101    0064         2856                  GOTO 0x56                     
      102    0065         3A07                  XORLW 0x7                     
      103    0066         1903                  BTFSC STATUS, 0x2             
      104    0067         2869                  GOTO 0x69                     
      105    0068         2869                  GOTO 0x69                     
      106    0069         0021                  MOVLB 0x1                     
      107    006A         0ADE                  INCF 0xDE, F                  
      108    006B         2990                  GOTO 0x190                    
      109    006C         25B4                  CALL 0x5B4                    
      110    006D         3180                  MOVLP 0x0                     
      111    006E         0875                  MOVF 0xF5, W                  
      112    006F         0021                  MOVLB 0x1                     
      113    0070         00B2                  MOVWF 0xB2                    
      114    0071         0874                  MOVF 0xF4, W                  
      115    0072         00B1                  MOVWF 0xB1                    
      116    0073         1CB1                  BTFSS 0xB1, 0x1               
      117    0074         287E                  GOTO 0x7E                     
      118    0075         0832                  MOVF 0xB2, W                  
      119    0076         39FF                  ANDLW 0xFF                    
      120    0077         3A92                  XORLW 0x92                    
      121    0078         1D03                  BTFSS 0x83, 0x2               
      122    0079         287E                  GOTO 0x7E                     
      123    007A         0023                  MOVLB 0x3                     
      124    007B         1346                  BCF 0x1C6, 0x6                
      125    007C         0022                  MOVLB 0x2                     
      126    007D         14E8                  BSF 0x168, 0x1                
      127    007E         0020                  MOVLB 0x0                     
      128    007F         0820                  MOVF 0x20, W                  
      129    0080         3A0A                  XORLW 0xA                     
      130    0081         1D03                  BTFSS STATUS, 0x2             
      131    0082         2887                  GOTO 0x87                     
      132    0083         3190                  MOVLP 0x10                    
      133    0084         20D8                  CALL 0xD8                     
      134    0085         3180                  MOVLP 0x0                     
      135    0086         28A9                  GOTO 0xA9                     
      136    0087         1D71                  BTFSS 0x71, 0x2               
      137    0088         2898                  GOTO 0x98                     
      138    0089         300A                  MOVLW 0xA                     
      139    008A         1171                  BCF 0x71, 0x2                 
      140    008B         2763                  CALL 0x763                    
      141    008C         3180                  MOVLP 0x0                     
      142    008D         24E9                  CALL 0x4E9                    
      143    008E         3180                  MOVLP 0x0                     
      144    008F         0021                  MOVLB 0x1                     
      145    0090         01EE                  CLRF 0xEE                     
      146    0091         0AEE                  INCF 0xEE, F                  
      147    0092         0020                  MOVLB 0x0                     
      148    0093         3040                  MOVLW 0x40                    
      149    0094         01D2                  CLRF 0x52                     
      150    0095         01D3                  CLRF 0x53                     
      151    0096         0021                  MOVLB 0x1                     
      152    0097         00DF                  MOVWF 0xDF                    
      153    0098         1FF1                  BTFSS 0xF1, 0x7               
      154    0099         28A9                  GOTO 0xA9                     
      155    009A         300A                  MOVLW 0xA                     
      156    009B         13F1                  BCF 0xF1, 0x7                 
      157    009C         0020                  MOVLB 0x0                     
      158    009D         2763                  CALL 0x763                    
      159    009E         3180                  MOVLP 0x0                     
      160    009F         24E9                  CALL 0x4E9                    
      161    00A0         3180                  MOVLP 0x0                     
      162    00A1         3021                  MOVLW 0x21                    
      163    00A2         0021                  MOVLB 0x1                     
      164    00A3         00EE                  MOVWF 0xEE                    
      165    00A4         0020                  MOVLB 0x0                     
      166    00A5         3040                  MOVLW 0x40                    
      167    00A6         01D3                  CLRF 0x53                     
      168    00A7         0021                  MOVLB 0x1                     
      169    00A8         00DF                  MOVWF 0xDF                    
      170    00A9         0021                  MOVLB 0x1                     
      171    00AA         0AD4                  INCF 0xD4, F                  
      172    00AB         0020                  MOVLB 0x0                     
      173    00AC         0852                  MOVF 0x52, W                  
      174    00AD         3A02                  XORLW 0x2                     
      175    00AE         1D03                  BTFSS STATUS, 0x2             
      176    00AF         28B3                  GOTO 0xB3                     
      177    00B0         3189                  MOVLP 0x9                     
      178    00B1         21E2                  CALL 0x1E2                    
      179    00B2         3180                  MOVLP 0x0                     
      180    00B3         0020                  MOVLB 0x0                     
      181    00B4         08BF                  MOVF 0x3F, F                  
      182    00B5         1D03                  BTFSS STATUS, 0x2             
      183    00B6         2869                  GOTO 0x69                     
      184    00B7         0B40                  DECFSZ 0x40, W                
      185    00B8         2869                  GOTO 0x69                     
      186    00B9         0820                  MOVF 0x20, W                  
      187    00BA         1D03                  BTFSS STATUS, 0x2             
      188    00BB         2869                  GOTO 0x69                     
      189    00BC         0023                  MOVLB 0x3                     
      190    00BD         1346                  BCF 0x1C6, 0x6                
      191    00BE         1746                  BSF 0x1C6, 0x6                
      192    00BF         0022                  MOVLB 0x2                     
      193    00C0         14E8                  BSF 0x168, 0x1                
      194    00C1         2869                  GOTO 0x69                     
      195    00C2         0020                  MOVLB 0x0                     
      196    00C3         0820                  MOVF 0x20, W                  
      197    00C4         3A0B                  XORLW 0xB                     
      198    00C5         1903                  BTFSC STATUS, 0x2             
      199    00C6         290E                  GOTO 0x10E                    
      200    00C7         0820                  MOVF 0x20, W                  
      201    00C8         3A0A                  XORLW 0xA                     
      202    00C9         1D03                  BTFSS STATUS, 0x2             
      203    00CA         2901                  GOTO 0x101                    
      204    00CB         290E                  GOTO 0x10E                    
      205    00CC         0852                  MOVF 0x52, W                  
      206    00CD         1903                  BTFSC STATUS, 0x2             
      207    00CE         28D1                  GOTO 0xD1                     
      208    00CF         3008                  MOVLW 0x8                     
      209    00D0         28D2                  GOTO 0xD2                     
      210    00D1         3050                  MOVLW 0x50                    
      211    00D2         0022                  MOVLB 0x2                     
      212    00D3         00E1                  MOVWF 0x161                   
      213    00D4         290E                  GOTO 0x10E                    
      214    00D5         3002                  MOVLW 0x2                     
      215    00D6         0252                  SUBWF 0x152, W                
      216    00D7         1C03                  BTFSS 0x103, 0x0              
      217    00D8         28D1                  GOTO 0xD1                     
      218    00D9         3049                  MOVLW 0x49                    
      219    00DA         28FE                  GOTO 0xFE                     
      220    00DB         3003                  MOVLW 0x3                     
      221    00DC         0252                  SUBWF 0x152, W                
      222    00DD         1C03                  BTFSS 0x103, 0x0              
      223    00DE         28D1                  GOTO 0xD1                     
      224    00DF         30CA                  MOVLW 0xCA                    
      225    00E0         28FE                  GOTO 0xFE                     
      226    00E1         3004                  MOVLW 0x4                     
      227    00E2         0252                  SUBWF 0x152, W                
      228    00E3         1C03                  BTFSS 0x103, 0x0              
      229    00E4         28D1                  GOTO 0xD1                     
      230    00E5         308B                  MOVLW 0x8B                    
      231    00E6         28FE                  GOTO 0xFE                     
      232    00E7         3005                  MOVLW 0x5                     
      233    00E8         0252                  SUBWF 0x152, W                
      234    00E9         1C03                  BTFSS 0x103, 0x0              
      235    00EA         28D1                  GOTO 0xD1                     
      236    00EB         304C                  MOVLW 0x4C                    
      237    00EC         28FE                  GOTO 0xFE                     
      238    00ED         3006                  MOVLW 0x6                     
      239    00EE         0252                  SUBWF 0x152, W                
      240    00EF         1C03                  BTFSS 0x103, 0x0              
      241    00F0         28D1                  GOTO 0xD1                     
      242    00F1         300D                  MOVLW 0xD                     
      243    00F2         28FE                  GOTO 0xFE                     
      244    00F3         3007                  MOVLW 0x7                     
      245    00F4         0252                  SUBWF 0x152, W                
      246    00F5         1C03                  BTFSS 0x103, 0x0              
      247    00F6         28D1                  GOTO 0xD1                     
      248    00F7         308E                  MOVLW 0x8E                    
      249    00F8         28FE                  GOTO 0xFE                     
      250    00F9         3008                  MOVLW 0x8                     
      251    00FA         0252                  SUBWF 0x152, W                
      252    00FB         1C03                  BTFSS 0x103, 0x0              
      253    00FC         28D1                  GOTO 0xD1                     
      254    00FD         30CF                  MOVLW 0xCF                    
      255    00FE         0022                  MOVLB 0x2                     
      256    00FF         00E1                  MOVWF 0x161                   
      257    0100         290E                  GOTO 0x10E                    
      258    0101         0854                  MOVF 0x154, W                 
      259    0102         3EFE                  ADDLW 0xFE                    
      260    0103         1C03                  BTFSS 0x103, 0x0              
      261    0104         290E                  GOTO 0x10E                    
      262    0105         0084                  MOVWF 0x104                   
      263    0106         3012                  MOVLW 0x12                    
      264    0107         0204                  SUBWF 0x104, W                
      265    0108         1803                  BTFSC 0x103, 0x0              
      266    0109         290E                  GOTO 0x10E                    
      267    010A         3190                  MOVLP 0x10                    
      268    010B         3504                  LSLF 0x104, W                 
      269    010C         3E00                  ADDLW 0x0                     
      270    010D         0082                  MOVWF 0x102                   
      271    010E         0020                  MOVLB 0x0                     
      272    010F         0B54                  DECFSZ 0x54, W                
      273    0110         2915                  GOTO 0x115                    
      274    0111         0021                  MOVLB 0x1                     
      275    0112         01D4                  CLRF 0xD4                     
      276    0113         26F8                  CALL 0x6F8                    
      277    0114         3180                  MOVLP 0x0                     
      278    0115         2396                  CALL 0x396                    
      279    0116         3180                  MOVLP 0x0                     
      280    0117         00D4                  MOVWF 0xD4                    
      281    0118         2869                  GOTO 0x69                     
      282    0119         0020                  MOVLB 0x0                     
      283    011A         0820                  MOVF 0x20, W                  
      284    011B         3A0B                  XORLW 0xB                     
      285    011C         1903                  BTFSC STATUS, 0x2             
      286    011D         2926                  GOTO 0x126                    
      287    011E         0021                  MOVLB 0x1                     
      288    011F         1E69                  BTFSS 0xE9, 0x4               
      289    0120         2926                  GOTO 0x126                    
      290    0121         3194                  MOVLP 0x14                    
      291    0122         242D                  CALL 0x42D                    
      292    0123         3180                  MOVLP 0x0                     
      293    0124         0021                  MOVLB 0x1                     
      294    0125         0AD2                  INCF 0xD2, F                  
      295    0126         1F70                  BTFSS 0xF0, 0x6               
      296    0127         2869                  GOTO 0x69                     
      297    0128         30FE                  MOVLW 0xFE                    
      298    0129         0020                  MOVLB 0x0                     
      299    012A         0230                  SUBWF 0x30, W                 
      300    012B         3000                  MOVLW 0x0                     
      301    012C         1903                  BTFSC STATUS, 0x2             
      302    012D         022F                  SUBWF 0x2F, W                 
      303    012E         1C03                  BTFSS STATUS, 0x0             
      304    012F         2869                  GOTO 0x69                     
      305    0130         0820                  MOVF 0x20, W                  
      306    0131         3A0A                  XORLW 0xA                     
      307    0132         1903                  BTFSC STATUS, 0x2             
      308    0133         2869                  GOTO 0x69                     
      309    0134         3001                  MOVLW 0x1                     
      310    0135         00A0                  MOVWF 0x20                    
      311    0136         2869                  GOTO 0x69                     
      312    0137         25AE                  CALL 0x5AE                    
      313    0138         3180                  MOVLP 0x0                     
      314    0139         0021                  MOVLB 0x1                     
      315    013A         1CCB                  BTFSS 0xCB, 0x1               
      316    013B         2949                  GOTO 0x149                    
      317    013C         300A                  MOVLW 0xA                     
      318    013D         0AC8                  INCF 0xC8, F                  
      319    013E         0248                  SUBWF 0xC8, W                 
      320    013F         1C03                  BTFSS 0x83, 0x0               
      321    0140         2949                  GOTO 0x149                    
      322    0141         0020                  MOVLB 0x0                     
      323    0142         01CD                  CLRF 0x4D                     
      324    0143         0021                  MOVLB 0x1                     
      325    0144         01C2                  CLRF 0xC2                     
      326    0145         01D3                  CLRF 0xD3                     
      327    0146         0AD3                  INCF 0xD3, F                  
      328    0147         10CB                  BCF 0xCB, 0x1                 
      329    0148         01C8                  CLRF 0xC8                     
      330    0149         1C4B                  BTFSS 0xCB, 0x0               
      331    014A         2958                  GOTO 0x158                    
      332    014B         300A                  MOVLW 0xA                     
      333    014C         0AC6                  INCF 0xC6, F                  
      334    014D         0246                  SUBWF 0xC6, W                 
      335    014E         1C03                  BTFSS 0x83, 0x0               
      336    014F         2958                  GOTO 0x158                    
      337    0150         2597                  CALL 0x597                    
      338    0151         3180                  MOVLP 0x0                     
      339    0152         0020                  MOVLB 0x0                     
      340    0153         01CD                  CLRF 0x4D                     
      341    0154         0021                  MOVLB 0x1                     
      342    0155         01C2                  CLRF 0xC2                     
      343    0156         104B                  BCF 0xCB, 0x0                 
      344    0157         01C6                  CLRF 0xC6                     
      345    0158         0854                  MOVF 0xD4, W                  
      346    0159         3A32                  XORLW 0x32                    
      347    015A         1D03                  BTFSS 0x83, 0x2               
      348    015B         2964                  GOTO 0x164                    
      349    015C         0020                  MOVLB 0x0                     
      350    015D         0820                  MOVF 0x20, W                  
      351    015E         3A0B                  XORLW 0xB                     
      352    015F         1903                  BTFSC STATUS, 0x2             
      353    0160         2964                  GOTO 0x164                    
      354    0161         3195                  MOVLP 0x15                    
      355    0162         2563                  CALL 0x563                    
      356    0163         3180                  MOVLP 0x0                     
      357    0164         1CF1                  BTFSS 0x71, 0x1               
      358    0165         2982                  GOTO 0x182                    
      359    0166         3040                  MOVLW 0x40                    
      360    0167         0020                  MOVLB 0x0                     
      361    0168         025B                  SUBWF 0x5B, W                 
      362    0169         1803                  BTFSC STATUS, 0x0             
      363    016A         297F                  GOTO 0x17F                    
      364    016B         0023                  MOVLB 0x3                     
      365    016C         1895                  BTFSC EECON1, 0x1             
      366    016D         2982                  GOTO 0x182                    
      367    016E         0020                  MOVLB 0x0                     
      368    016F         085B                  MOVF 0x5B, W                  
      369    0170         2192                  CALL 0x192                    
      370    0171         3180                  MOVLP 0x0                     
      371    0172         0876                  MOVF 0x76, W                  
      372    0173         0475                  IORWF 0x75, W                 
      373    0174         1903                  BTFSC STATUS, 0x2             
      374    0175         297C                  GOTO 0x17C                    
      375    0176         01F4                  CLRF 0x74                     
      376    0177         0020                  MOVLB 0x0                     
      377    0178         085B                  MOVF 0x5B, W                  
      378    0179         318E                  MOVLP 0xE                     
      379    017A         26E9                  CALL 0x6E9                    
      380    017B         3180                  MOVLP 0x0                     
      381    017C         0020                  MOVLB 0x0                     
      382    017D         0ADB                  INCF 0x5B, F                  
      383    017E         2982                  GOTO 0x182                    
      384    017F         10F1                  BCF 0x71, 0x1                 
      385    0180         21A3                  CALL 0x1A3                    
      386    0181         3180                  MOVLP 0x0                     
      387    0182         0021                  MOVLB 0x1                     
      388    0183         01DE                  CLRF 0xDE                     
      389    0184         2990                  GOTO 0x190                    
      390    0185         0021                  MOVLB 0x1                     
      391    0186         085E                  MOVF 0xDE, W                  
      392    0187         0084                  MOVWF 0x84                    
      393    0188         3008                  MOVLW 0x8                     
      394    0189         0204                  SUBWF 0x84, W                 
      395    018A         1803                  BTFSC 0x83, 0x0               
      396    018B         2982                  GOTO 0x182                    
      397    018C         3198                  MOVLP 0x18                    
      398    018D         3504                  LSLF 0x84, W                  
      399    018E         3E00                  ADDLW 0x0                     
      400    018F         0082                  MOVWF 0x82                    
      401    0190         0064                  CLRWDT                        
      402    0191         0008                  RETURN                        
      403    0192         00F9                  MOVWF 0xF9                    
      404    0193         2368                  CALL 0x368                    
      405    0194         3180                  MOVLP 0x0                     
      406    0195         00F7                  MOVWF 0xF7                    
      407    0196         01F8                  CLRF 0xF8                     
      408    0197         00F8                  MOVWF 0xF8                    
      409    0198         01F7                  CLRF 0xF7                     
      410    0199         0A79                  INCF 0xF9, W                  
      411    019A         2368                  CALL 0x368                    
      412    019B         07F7                  ADDWF 0xF7, F                 
      413    019C         1803                  BTFSC 0x83, 0x0               
      414    019D         0AF8                  INCF 0xF8, F                  
      415    019E         0878                  MOVF 0xF8, W                  
      416    019F         00F6                  MOVWF 0xF6                    
      417    01A0         0877                  MOVF 0xF7, W                  
      418    01A1         00F5                  MOVWF 0xF5                    
      419    01A2         0008                  RETURN                        
      420    01A3         0020                  MOVLB 0x0                     
      421    01A4         30FF                  MOVLW 0xFF                    
      422    01A5         01DF                  CLRF 0x5F                     
      423    01A6         01B1                  CLRF 0x31                     
      424    01A7         01B2                  CLRF 0x32                     
      425    01A8         00AD                  MOVWF 0x2D                    
      426    01A9         00AE                  MOVWF 0x2E                    
      427    01AA         3038                  MOVLW 0x38                    
      428    01AB         00DB                  MOVWF 0x5B                    
      429    01AC         3040                  MOVLW 0x40                    
      430    01AD         025B                  SUBWF 0x5B, W                 
      431    01AE         1803                  BTFSC STATUS, 0x0             
      432    01AF         29DF                  GOTO 0x1DF                    
      433    01B0         085B                  MOVF 0x5B, W                  
      434    01B1         2192                  CALL 0x192                    
      435    01B2         3180                  MOVLP 0x0                     
      436    01B3         279C                  CALL 0x79C                    
      437    01B4         3180                  MOVLP 0x0                     
      438    01B5         1903                  BTFSC STATUS, 0x2             
      439    01B6         29BC                  GOTO 0x1BC                    
      440    01B7         355F                  LSLF 0x5F, W                  
      441    01B8         3E38                  ADDLW 0x38                    
      442    01B9         277E                  CALL 0x77E                    
      443    01BA         3180                  MOVLP 0x0                     
      444    01BB         29C4                  GOTO 0x1C4                    
      445    01BC         355F                  LSLF 0x5F, W                  
      446    01BD         3ED2                  ADDLW 0xD2                    
      447    01BE         0086                  MOVWF FSR1                    
      448    01BF         3001                  MOVLW 0x1                     
      449    01C0         0087                  MOVWF FSR1H                   
      450    01C1         355F                  LSLF 0x5F, W                  
      451    01C2         3E38                  ADDLW 0x38                    
      452    01C3         2786                  CALL 0x786                    
      453    01C4         318F                  MOVLP 0xF                     
      454    01C5         27AA                  CALL 0x7AA                    
      455    01C6         3180                  MOVLP 0x0                     
      456    01C7         3F40                  MOVIW [0]FSR1                 
      457    01C8         00FA                  MOVWF 0x7A                    
      458    01C9         3F41                  MOVIW [1]FSR1                 
      459    01CA         00FB                  MOVWF 0x7B                    
      460    01CB         0232                  SUBWF 0x32, W                 
      461    01CC         1D03                  BTFSS STATUS, 0x2             
      462    01CD         29D0                  GOTO 0x1D0                    
      463    01CE         087A                  MOVF 0x7A, W                  
      464    01CF         0231                  SUBWF 0x31, W                 
      465    01D0         1803                  BTFSC STATUS, 0x0             
      466    01D1         29DB                  GOTO 0x1DB                    
      467    01D2         355F                  LSLF 0x5F, W                  
      468    01D3         3E38                  ADDLW 0x38                    
      469    01D4         0086                  MOVWF FSR1                    
      470    01D5         3001                  MOVLW 0x1                     
      471    01D6         0087                  MOVWF FSR1H                   
      472    01D7         3F40                  MOVIW [0]FSR1                 
      473    01D8         00B1                  MOVWF 0x31                    
      474    01D9         3F41                  MOVIW [1]FSR1                 
      475    01DA         00B2                  MOVWF 0x32                    
      476    01DB         0ADF                  INCF 0x5F, F                  
      477    01DC         0ADB                  INCF 0x5B, F                  
      478    01DD         0ADB                  INCF 0x5B, F                  
      479    01DE         29AC                  GOTO 0x1AC                    
      480    01DF         3030                  MOVLW 0x30                    
      481    01E0         01DF                  CLRF 0x5F                     
      482    01E1         00DB                  MOVWF 0x5B                    
      483    01E2         3038                  MOVLW 0x38                    
      484    01E3         025B                  SUBWF 0x5B, W                 
      485    01E4         1803                  BTFSC STATUS, 0x0             
      486    01E5         2A16                  GOTO 0x216                    
      487    01E6         085B                  MOVF 0x5B, W                  
      488    01E7         2192                  CALL 0x192                    
      489    01E8         3180                  MOVLP 0x0                     
      490    01E9         279C                  CALL 0x79C                    
      491    01EA         3180                  MOVLP 0x0                     
      492    01EB         1903                  BTFSC STATUS, 0x2             
      493    01EC         29F2                  GOTO 0x1F2                    
      494    01ED         355F                  LSLF 0x5F, W                  
      495    01EE         3E28                  ADDLW 0x28                    
      496    01EF         277E                  CALL 0x77E                    
      497    01F0         3180                  MOVLP 0x0                     
      498    01F1         29FA                  GOTO 0x1FA                    
      499    01F2         355F                  LSLF 0x5F, W                  
      500    01F3         3E30                  ADDLW 0x30                    
      501    01F4         0086                  MOVWF FSR1                    
      502    01F5         3001                  MOVLW 0x1                     
      503    01F6         0087                  MOVWF FSR1H                   
      504    01F7         355F                  LSLF 0x5F, W                  
      505    01F8         3E28                  ADDLW 0x28                    
      506    01F9         2786                  CALL 0x786                    
      507    01FA         355F                  LSLF 0x5F, W                  
      508    01FB         318F                  MOVLP 0xF                     
      509    01FC         279A                  CALL 0x79A                    
      510    01FD         3180                  MOVLP 0x0                     
      511    01FE         3F40                  MOVIW [0]FSR1                 
      512    01FF         00FA                  MOVWF 0x7A                    
      513    0200         3F41                  MOVIW [1]FSR1                 
      514    0201         00FB                  MOVWF 0x7B                    
      515    0202         082E                  MOVF 0x2E, W                  
      516    0203         027B                  SUBWF 0x7B, W                 
      517    0204         1D03                  BTFSS STATUS, 0x2             
      518    0205         2A08                  GOTO 0x208                    
      519    0206         082D                  MOVF 0x2D, W                  
      520    0207         027A                  SUBWF 0x7A, W                 
      521    0208         1803                  BTFSC STATUS, 0x0             
      522    0209         2A12                  GOTO 0x212                    
      523    020A         355F                  LSLF 0x5F, W                  
      524    020B         318F                  MOVLP 0xF                     
      525    020C         279A                  CALL 0x79A                    
      526    020D         3180                  MOVLP 0x0                     
      527    020E         3F40                  MOVIW [0]FSR1                 
      528    020F         00AD                  MOVWF 0x2D                    
      529    0210         3F41                  MOVIW [1]FSR1                 
      530    0211         00AE                  MOVWF 0x2E                    
      531    0212         0ADF                  INCF 0x5F, F                  
      532    0213         0ADB                  INCF 0x5B, F                  
      533    0214         0ADB                  INCF 0x5B, F                  
      534    0215         29E2                  GOTO 0x1E2                    
      535    0216         082E                  MOVF 0x2E, W                  
      536    0217         318F                  MOVLP 0xF                     
      537    0218         279F                  CALL 0x79F                    
      538    0219         3180                  MOVLP 0x0                     
      539    021A         0020                  MOVLB 0x0                     
      540    021B         0832                  MOVF 0x32, W                  
      541    021C         318F                  MOVLP 0xF                     
      542    021D         27BA                  CALL 0x7BA                    
      543    021E         1803                  BTFSC STATUS, 0x0             
      544    021F         0ABE                  INCF 0x3E, F                  
      545    0220         0008                  RETURN                        
      546    0221         3021                  MOVLW 0x21                    
      547    0222         01F0                  CLRF 0x70                     
      548    0223         01F1                  CLRF 0x71                     
      549    0224         0084                  MOVWF FSR0                    
      550    0225         3000                  MOVLW 0x0                     
      551    0226         0085                  MOVWF FSR0H                   
      552    0227         3040                  MOVLW 0x40                    
      553    0228         3190                  MOVLP 0x10                    
      554    0229         2046                  CALL 0x46            CALL1         
      555    022A         3180                  MOVLP 0x0                     
      556    022B         30A0                  MOVLW 0xA0                    
      557    022C         0084                  MOVWF FSR0                    
      558    022D         3000                  MOVLW 0x0                     
      559    022E         0085                  MOVWF FSR0H                   
      560    022F         304C                  MOVLW 0x4C                    
      561    0230         3190                  MOVLP 0x10                    
      562    0231         2046                  CALL 0x46                     
      563    0232         3180                  MOVLP 0x0                     
      564    0233         3020                  MOVLW 0x20                    
      565    0234         0084                  MOVWF FSR0                    
      566    0235         3001                  MOVLW 0x1                     
      567    0236         0085                  MOVWF FSR0H                   
      568    0237         3039                  MOVLW 0x39                    
      569    0238         3190                  MOVLP 0x10                    
      570    0239         2046                  CALL 0x46                     
      571    023A         3180                  MOVLP 0x0                     
      572    023B         30D2                  MOVLW 0xD2                    
      573    023C         0084                  MOVWF FSR0                    
      574    023D         3001                  MOVLW 0x1                     
      575    023E         0085                  MOVWF FSR0H                   
      576    023F         301A                  MOVLW 0x1A                    
      577    0240         3190                  MOVLP 0x10                    
      578    0241         2046                  CALL 0x46                     
      579    0242         3180                  MOVLP 0x0                     
      580    0243         30FF                  MOVLW 0xFF                    
      581    0244         00EF                  MOVWF 0x6F                    
      582    0245         0021                  MOVLB 0x1                     
      583    0246         00EC                  MOVWF 0xEC                    
      584    0247         00ED                  MOVWF 0xED                    
      585    0248         3001                  MOVLW 0x1                     
      586    0249         00EE                  MOVWF 0xEE                    
      587    024A         304C                  MOVLW 0x4C                    
      588    024B         0084                  MOVWF 0x84                    
      589    024C         3090                  MOVLW 0x90                    
      590    024D         0085                  MOVWF 0x85                    
      591    024E         3059                  MOVLW 0x59                    
      592    024F         0086                  MOVWF 0x86                    
      593    0250         3001                  MOVLW 0x1                     
      594    0251         0087                  MOVWF 0x87                    
      595    0252         3011                  MOVLW 0x11                    
      596    0253         319F                  MOVLP 0x1F                    
      597    0254         27FA                  CALL 0x7FA                    
      598    0255         3180                  MOVLP 0x0                     
      599    0256         3005                  MOVLW 0x5                     
      600    0257         0084                  MOVWF 0x84                    
      601    0258         3088                  MOVLW 0x88                    
      602    0259         0085                  MOVWF 0x85                    
      603    025A         30A0                  MOVLW 0xA0                    
      604    025B         0086                  MOVWF 0x86                    
      605    025C         3001                  MOVLW 0x1                     
      606    025D         0087                  MOVWF 0x87                    
      607    025E         3032                  MOVLW 0x32                    
      608    025F         319F                  MOVLP 0x1F                    
      609    0260         27FA                  CALL 0x7FA                    
      610    0261         3180                  MOVLP 0x0                     
      611    0262         305D                  MOVLW 0x5D                    
      612    0263         0084                  MOVWF 0x84                    
      613    0264         3090                  MOVLW 0x90                    
      614    0265         0085                  MOVWF 0x85                    
      615    0266         3020                  MOVLW 0x20                    
      616    0267         0086                  MOVWF 0x86                    
      617    0268         3002                  MOVLW 0x2                     
      618    0269         0087                  MOVWF 0x87                    
      619    026A         3039                  MOVLW 0x39                    
      620    026B         319F                  MOVLP 0x1F                    
      621    026C         27FA                  CALL 0x7FA                    
      622    026D         3180                  MOVLP 0x0                     
      623    026E         3096                  MOVLW 0x96                    
      624    026F         0084                  MOVWF 0x84                    
      625    0270         3090                  MOVLW 0x90                    
      626    0271         0085                  MOVWF 0x85                    
      627    0272         30A0                  MOVLW 0xA0                    
      628    0273         0086                  MOVWF 0x86                    
      629    0274         3002                  MOVLW 0x2                     
      630    0275         0087                  MOVWF 0x87                    
      631    0276         3042                  MOVLW 0x42                    
      632    0277         319F                  MOVLP 0x1F                    
      633    0278         27FA                  CALL 0x7FA                    
      634    0279         3180                  MOVLP 0x0                     
      635    027A         0020                  MOVLB 0x0                     
      636    027B         2A7C                  GOTO 0x27C                    
      637    027C         228A                  CALL 0x28A                    
      638    027D         3180                  MOVLP 0x0                     
      639    027E         0064                  CLRWDT                        
      640    027F         0020                  MOVLB 0x0                     
      641    0280         1091                  BCF PIR1, 0x1                 
      642    0281         170B                  BSF INTCON, 0x6               
      643    0282         178B                  BSF INTCON, 0x7               
      644    0283         0020                  MOVLB 0x0                     
      645    0284         1C91                  BTFSS PIR1, 0x1               
      646    0285         2A83                  GOTO 0x283                    
      647    0286         1091                  BCF PIR1, 0x1                 
      648    0287         2021                  CALL 0x21                     
      649    0288         3180                  MOVLP 0x0                     
      650    0289         2A83                  GOTO 0x283                    
      651    028A         2366                  CALL 0x366                    
      652    028B         3180                  MOVLP 0x0                     
      653    028C         0022                  MOVLB 0x2                     
      654    028D         100E                  BCF LATC, 0x0     
            
      655    028E         2531                  CALL 0x531               // goto init      
      656    028F         3180                  MOVLP 0x0                     
      657    0290         3007                  MOVLW 0x7                     
      658    0291         0020                  MOVLB 0x0                     
      659    0292         00A0                  MOVWF 0x20                    
      660    0293         0023                  MOVLB 0x3                     
      661    0294         161F                  BSF BAUDCON, 0x4              
      662    0295         2366                  CALL 0x366                    
      663    0296         3180                  MOVLP 0x0                     
      664    0297         2ABB                  GOTO 0x2BB                    
      665    0298         0022                  MOVLB 0x2                     
      666    0299         01EF                  CLRF 0x16F                    
      667    029A         2AC7                  GOTO 0x2C7                    
      668    029B         300A                  MOVLW 0xA                     
      669    029C         2AB8                  GOTO 0x2B8                    
      670    029D         3015                  MOVLW 0x15                    
      671    029E         2AB8                  GOTO 0x2B8                    
      672    029F         3020                  MOVLW 0x20                    
      673    02A0         2AB8                  GOTO 0x2B8                    
      674    02A1         302C                  MOVLW 0x2C                    
      675    02A2         2AB8                  GOTO 0x2B8                    
      676    02A3         3038                  MOVLW 0x38                    
      677    02A4         2AB8                  GOTO 0x2B8                    
      678    02A5         3045                  MOVLW 0x45                    
      679    02A6         2AB8                  GOTO 0x2B8                    
      680    02A7         3052                  MOVLW 0x52                    
      681    02A8         2AB8                  GOTO 0x2B8                    
      682    02A9         3060                  MOVLW 0x60                    
      683    02AA         2AB8                  GOTO 0x2B8                    
      684    02AB         306E                  MOVLW 0x6E                    
      685    02AC         2AB8                  GOTO 0x2B8                    
      686    02AD         307D                  MOVLW 0x7D                    
      687    02AE         2AB8                  GOTO 0x2B8                    
      688    02AF         308C                  MOVLW 0x8C                    
      689    02B0         2AB8                  GOTO 0x2B8                    
      690    02B1         309C                  MOVLW 0x9C                    
      691    02B2         2AB8                  GOTO 0x2B8                    
      692    02B3         30AD                  MOVLW 0xAD                    
      693    02B4         2AB8                  GOTO 0x2B8                    
      694    02B5         30BE                  MOVLW 0xBE                    
      695    02B6         2AB8                  GOTO 0x2B8                    
      696    02B7         30D0                  MOVLW 0xD0                    
      697    02B8         0022                  MOVLB 0x2                     
      698    02B9         00EF                  MOVWF 0x16F                   
      699    02BA         2AC7                  GOTO 0x2C7                    
      700    02BB         3000                  MOVLW 0x0                     
      701    02BC         2368                  CALL 0x368                    
      702    02BD         3180                  MOVLP 0x0                     
      703    02BE         0084                  MOVWF 0x104                   
      704    02BF         3010                  MOVLW 0x10                    
      705    02C0         0204                  SUBWF 0x104, W                
      706    02C1         1803                  BTFSC 0x103, 0x0              
      707    02C2         2AB7                  GOTO 0x2B7                    
      708    02C3         3190                  MOVLP 0x10                    
      709    02C4         3504                  LSLF 0x104, W                 
      710    02C5         3E24                  ADDLW 0x24                    
      711    02C6         0082                  MOVWF 0x102                   
      712    02C7         3001                  MOVLW 0x1                     
      713    02C8         2368                  CALL 0x368                    
      714    02C9         3180                  MOVLP 0x0                     
      715    02CA         0021                  MOVLB 0x1                     
      716    02CB         00EF                  MOVWF 0xEF                    
      717    02CC         0020                  MOVLB 0x0                     
      718    02CD         190D                  BTFSC PORTB, 0x2              
      719    02CE         2AD2                  GOTO 0x2D2                    
      720    02CF         3014                  MOVLW 0x14                    
      721    02D0         0021                  MOVLB 0x1                     
      722    02D1         07EF                  ADDWF 0xEF, F                 
      723    02D2         30FF                  MOVLW 0xFF                    
      724    02D3         0021                  MOVLB 0x1                     
      725    02D4         00DE                  MOVWF 0xDE                    
      726    02D5         0020                  MOVLB 0x0                     
      727    02D6         01DD                  CLRF 0x5D                     
      728    02D7         0020                  MOVLB 0x0                     
      729    02D8         085C                  MOVF 0x5C, W                  
      730    02D9         3AFF                  XORLW 0xFF                    
      731    02DA         1903                  BTFSC STATUS, 0x2             
      732    02DB         2B2B                  GOTO 0x32B                    
      733    02DC         1F8E                  BTFSS PORTC, 0x7              
      734    02DD         2AE4                  GOTO 0x2E4                    
      735    02DE         3046                  MOVLW 0x46                    
      736    02DF         025D                  SUBWF 0x5D, W                 
      737    02E0         1803                  BTFSC STATUS, 0x0             
      738    02E1         2AE8                  GOTO 0x2E8                    
      739    02E2         0ADD                  INCF 0x5D, F                  
      740    02E3         2AE8                  GOTO 0x2E8                    
      741    02E4         3046                  MOVLW 0x46                    
      742    02E5         025D                  SUBWF 0x5D, W                 
      743    02E6         1C03                  BTFSS STATUS, 0x0             
      744    02E7         01DD                  CLRF 0x5D                     
      745    02E8         1C91                  BTFSS PIR1, 0x1               
      746    02E9         2AD7                  GOTO 0x2D7                    
      747    02EA         1091                  BCF PIR1, 0x1                 
      748    02EB         304F                  MOVLW 0x4F                    
      749    02EC         0021                  MOVLB 0x1                     
      750    02ED         025E                  SUBWF 0xDE, W                 
      751    02EE         1C03                  BTFSS 0x83, 0x0               
      752    02EF         2B27                  GOTO 0x327                    
      753    02F0         01DE                  CLRF 0xDE                     
      754    02F1         0020                  MOVLB 0x0                     
      755    02F2         085C                  MOVF 0x5C, W                  
      756    02F3         0022                  MOVLB 0x2                     
      757    02F4         066F                  XORWF 0x16F, W                
      758    02F5         1D03                  BTFSS 0x103, 0x2              
      759    02F6         2B1E                  GOTO 0x31E                    
      760    02F7         0021                  MOVLB 0x1                     
      761    02F8         3046                  MOVLW 0x46                    
      762    02F9         01EF                  CLRF 0xEF                     
      763    02FA         0020                  MOVLB 0x0                     
      764    02FB         025D                  SUBWF 0x5D, W                 
      765    02FC         1803                  BTFSC STATUS, 0x0             
      766    02FD         2B17                  GOTO 0x317                    
      767    02FE         01DD                  CLRF 0x5D                     
      768    02FF         1F8E                  BTFSS PORTC, 0x7              
      769    0300         2B06                  GOTO 0x306                    
      770    0301         3032                  MOVLW 0x32                    
      771    0302         0021                  MOVLB 0x1                     
      772    0303         026F                  SUBWF 0xEF, W                 
      773    0304         1C03                  BTFSS 0x83, 0x0               
      774    0305         0AEF                  INCF 0xEF, F                  
      775    0306         0020                  MOVLB 0x0                     
      776    0307         3032                  MOVLW 0x32                    
      777    0308         0ADD                  INCF 0x5D, F                  
      778    0309         025D                  SUBWF 0x5D, W                 
      779    030A         1C03                  BTFSS STATUS, 0x0             
      780    030B         2AFF                  GOTO 0x2FF                    
      781    030C         3005                  MOVLW 0x5                     
      782    030D         0021                  MOVLB 0x1                     
      783    030E         026F                  SUBWF 0xEF, W                 
      784    030F         1803                  BTFSC 0x83, 0x0               
      785    0310         2B17                  GOTO 0x317                    
      786    0311         3009                  MOVLW 0x9                     
      787    0312         0020                  MOVLB 0x0                     
      788    0313         00A0                  MOVWF 0x20                    
      789    0314         0022                  MOVLB 0x2                     
      790    0315         140E                  BSF LATC, 0x0                 
      791    0316         2B1C                  GOTO 0x31C                    
      792    0317         3008                  MOVLW 0x8                     
      793    0318         0020                  MOVLB 0x0                     
      794    0319         00A0                  MOVWF 0x20                    
      795    031A         0022                  MOVLB 0x2                     
      796    031B         100E                  BCF LATC, 0x0                 
      797    031C         0021                  MOVLB 0x1                     
      798    031D         01EF                  CLRF 0xEF                     
      799    031E         0021                  MOVLB 0x1                     
      800    031F         086F                  MOVF 0xEF, W                  
      801    0320         1903                  BTFSC 0x83, 0x2               
      802    0321         2B24                  GOTO 0x324                    
      803    0322         03EF                  DECF 0xEF, F                  
      804    0323         2B28                  GOTO 0x328                    
      805    0324         0020                  MOVLB 0x0                     
      806    0325         0ADC                  INCF 0x5C, F                  
      807    0326         2B28                  GOTO 0x328                    
      808    0327         0ADE                  INCF 0x5E, F                  
      809    0328         2366                  CALL 0x366                    
      810    0329         3180                  MOVLP 0x0                     
      811    032A         2AD7                  GOTO 0x2D7                    
      812    032B         2530                  CALL 0x530		// goto init                     
      813    032C         3180                  MOVLP 0x0                     
      814    032D         2382                  CALL 0x382                    
      815    032E         3180                  MOVLP 0x0                     
      816    032F         0020                  MOVLB 0x0                     
      817    0330         0820                  MOVF 0x20, W                  
      818    0331         3A09                  XORLW 0x9                     
      819    0332         1D03                  BTFSS STATUS, 0x2             
      820    0333         2B4C                  GOTO 0x34C                    
      821    0334         3000                  MOVLW 0x0                     
      822    0335         2368                  CALL 0x368                    
      823    0336         3180                  MOVLP 0x0                     
      824    0337         0020                  MOVLB 0x0                     
      825    0338         00DC                  MOVWF 0x5C                    
      826    0339         1C5C                  BTFSS 0x5C, 0x0               
      827    033A         2B46                  GOTO 0x346                    
      828    033B         2366                  CALL 0x366                    
      829    033C         3180                  MOVLP 0x0                     
      830    033D         0020                  MOVLB 0x0                     
      831    033E         085C                  MOVF 0x5C, W                  
      832    033F         3EFF                  ADDLW 0xFF                    
      833    0340         00F4                  MOVWF 0x74                    
      834    0341         3000                  MOVLW 0x0                     
      835    0342         2371                  CALL 0x371                    
      836    0343         3180                  MOVLP 0x0                     
      837    0344         2366                  CALL 0x366                    
      838    0345         3180                  MOVLP 0x0                     
      839    0346         300A                  MOVLW 0xA                     
      840    0347         0020                  MOVLB 0x0                     
      841    0348         2763                  CALL 0x763                    
      842    0349         3180                  MOVLP 0x0                     
      843    034A         24E9                  CALL 0x4E9                    
      844    034B         3180                  MOVLP 0x0                     
      845    034C         0820                  MOVF 0x20, W                  
      846    034D         3A08                  XORLW 0x8                     
      847    034E         1D03                  BTFSS STATUS, 0x2             
      848    034F         0008                  RETURN                        
      849    0350         3000                  MOVLW 0x0                     
      850    0351         2368                  CALL 0x368                    
      851    0352         3180                  MOVLP 0x0                     
      852    0353         0020                  MOVLB 0x0                     
      853    0354         00DC                  MOVWF 0x5C                    
      854    0355         185C                  BTFSC 0x5C, 0x0               
      855    0356         2B60                  GOTO 0x360                    
      856    0357         2366                  CALL 0x366                    
      857    0358         3180                  MOVLP 0x0                     
      858    0359         0020                  MOVLB 0x0                     
      859    035A         0A5C                  INCF 0x5C, W                  
      860    035B         00F4                  MOVWF 0x74                    
      861    035C         3000                  MOVLW 0x0                     
      862    035D         2371                  CALL 0x371                    
      863    035E         3180                  MOVLP 0x0                     
      864    035F         2366                  CALL 0x366                    
      865    0360         300B                  MOVLW 0xB                     
      866    0361         0020                  MOVLB 0x0                     
      867    0362         00A0                  MOVWF 0x20                    
      868    0363         31B8                  MOVLP 0x38                    
      869    0364         2800                  GOTO 0x0                      
      870    0365         0008                  RETURN                        
      871    0366         0064                  CLRWDT                        
      872    0367         0008                  RETURN                        
      873    0368         00F4                  MOVWF 0x74                    
      874    0369         0023                  MOVLB 0x3                     
      875    036A         0091                  MOVWF EEADR                   
      876    036B         0192                  CLRF EEADRH                   
      877    036C         1315                  BCF EECON1, 0x6               
      878    036D         1395                  BCF EECON1, 0x7               
      879    036E         1415                  BSF EECON1, 0x0               
      880    036F         0813                  MOVF EEDAT, W                 
      881    0370         0008                  RETURN                        
      882    0371         00F5                  MOVWF 0x1F5                   
      883    0372         0023                  MOVLB 0x3                     
      884    0373         0091                  MOVWF EEADR                   
      885    0374         0192                  CLRF EEADRH                   
      886    0375         0874                  MOVF 0x1F4, W                 
      887    0376         0093                  MOVWF EEDAT                   
      888    0377         0194                  CLRF EEDATH                   
      889    0378         1315                  BCF EECON1, 0x6               
      890    0379         1395                  BCF EECON1, 0x7               
      891    037A         1515                  BSF EECON1, 0x2               
      892    037B         3055                  MOVLW 0x55                    
      893    037C         0096                  MOVWF EECON2                  
      894    037D         30AA                  MOVLW 0xAA                    
      895    037E         0096                  MOVWF EECON2                  
      896    037F         1495                  BSF EECON1, 0x1               
      897    0380         1115                  BCF EECON1, 0x2               
      898    0381         0008                  RETURN                        
      899    0382         0021                  MOVLB 0x1                     
      900    0383         01EE                  CLRF 0xEE                     
      901    0384         0AEE                  INCF 0xEE, F                  
      902    0385         0020                  MOVLB 0x0                     
      903    0386         303C                  MOVLW 0x3C                    
      904    0387         01D2                  CLRF 0x52                     
      905    0388         01D3                  CLRF 0x53                     
      906    0389         0024                  MOVLB 0x4                     
      907    038A         00A0                  MOVWF 0x220                   
      908    038B         3064                  MOVLW 0x64                    
      909    038C         01A1                  CLRF 0x221                    
      910    038D         00A4                  MOVWF 0x224                   
      911    038E         307D                  MOVLW 0x7D                    
      912    038F         01A5                  CLRF 0x225                    
      913    0390         00A6                  MOVWF 0x226                   
      914    0391         3096                  MOVLW 0x96                    
      915    0392         01A7                  CLRF 0x227                    
      916    0393         00AA                  MOVWF 0x22A                   
      917    0394         01AB                  CLRF 0x22B                    
      918    0395         0008                  RETURN                        
      919    0396         01E8                  CLRF 0x268                    
      920    0397         0021                  MOVLB 0x1                     
      921    0398         0A6C                  INCF 0xEC, W                  
      922    0399         1903                  BTFSC 0x83, 0x2               
      923    039A         0A6D                  INCF 0xED, W                  
      924    039B         1903                  BTFSC 0x83, 0x2               
      925    039C         2BA0                  GOTO 0x3A0                    
      926    039D         0AEC                  INCF 0xEC, F                  
      927    039E         1903                  BTFSC 0x83, 0x2               
      928    039F         0AED                  INCF 0xED, F                  
      929    03A0         0020                  MOVLB 0x0                     
      930    03A1         08C8                  MOVF 0x48, F                  
      931    03A2         1D03                  BTFSS STATUS, 0x2             
      932    03A3         2CE6                  GOTO 0x4E6                    
      933    03A4         0021                  MOVLB 0x1                     
      934    03A5         0841                  MOVF 0xC1, W                  
      935    03A6         1903                  BTFSC 0x83, 0x2               
      936    03A7         2C56                  GOTO 0x456                    
      937    03A8         2C42                  GOTO 0x442                    
      938    03A9         276B                  CALL 0x76B                    
      939    03AA         3180                  MOVLP 0x0                     
      940    03AB         24E9                  CALL 0x4E9                    
      941    03AC         3180                  MOVLP 0x0                     
      942    03AD         3003                  MOVLW 0x3                     
      943    03AE         01C1                  CLRF 0xC1                     
      944    03AF         0021                  MOVLB 0x1                     
      945    03B0         00C1                  MOVWF 0xC1                    
      946    03B1         0860                  MOVF 0xE0, W                  
      947    03B2         39F0                  ANDLW 0xF0                    
      948    03B3         1903                  BTFSC 0x83, 0x2               
      949    03B4         2C56                  GOTO 0x456                    
      950    03B5         085F                  MOVF 0xDF, W                  
      951    03B6         1903                  BTFSC 0x83, 0x2               
      952    03B7         2C56                  GOTO 0x456                    
      953    03B8         085F                  MOVF 0xDF, W                  
      954    03B9         3A7F                  XORLW 0x7F                    
      955    03BA         1903                  BTFSC 0x83, 0x2               
      956    03BB         2C56                  GOTO 0x456                    
      957    03BC         085F                  MOVF 0xDF, W                  
      958    03BD         3A7E                  XORLW 0x7E                    
      959    03BE         1903                  BTFSC 0x83, 0x2               
      960    03BF         2C56                  GOTO 0x456                    
      961    03C0         0020                  MOVLB 0x0                     
      962    03C1         01E9                  CLRF 0x69                     
      963    03C2         3002                  MOVLW 0x2                     
      964    03C3         0AE9                  INCF 0x69, F                  
      965    03C4         0269                  SUBWF 0x69, W                 
      966    03C5         1803                  BTFSC STATUS, 0x0             
      967    03C6         2C56                  GOTO 0x456                    
      968    03C7         2BC2                  GOTO 0x3C2                    
      969    03C8         276B                  CALL 0x76B                    
      970    03C9         3180                  MOVLP 0x0                     
      971    03CA         24E9                  CALL 0x4E9                    
      972    03CB         3180                  MOVLP 0x0                     
      973    03CC         3004                  MOVLW 0x4                     
      974    03CD         01C1                  CLRF 0x41                     
      975    03CE         2BFF                  GOTO 0x3FF                    
      976    03CF         0020                  MOVLB 0x0                     
      977    03D0         0344                  DECF 0x44, W                  
      978    03D1         1903                  BTFSC STATUS, 0x2             
      979    03D2         2C56                  GOTO 0x456                    
      980    03D3         0842                  MOVF 0x42, W                  
      981    03D4         3A02                  XORLW 0x2                     
      982    03D5         1D03                  BTFSS STATUS, 0x2             
      983    03D6         2BDC                  GOTO 0x3DC                    
      984    03D7         084B                  MOVF 0x4B, W                  
      985    03D8         27A3                  CALL 0x7A3                    
      986    03D9         3180                  MOVLP 0x0                     
      987    03DA         24E9                  CALL 0x4E9                    
      988    03DB         3180                  MOVLP 0x0                     
      989    03DC         0021                  MOVLB 0x1                     
      990    03DD         01C1                  CLRF 0xC1                     
      991    03DE         0020                  MOVLB 0x0                     
      992    03DF         0844                  MOVF 0x44, W                  
      993    03E0         3A03                  XORLW 0x3                     
      994    03E1         1903                  BTFSC STATUS, 0x2             
      995    03E2         2C56                  GOTO 0x456                    
      996    03E3         01C4                  CLRF 0x44                     
      997    03E4         2C56                  GOTO 0x456                    
      998    03E5         0020                  MOVLB 0x0                     
      999    03E6         0344                  DECF 0x44, W                  
     1000    03E7         1903                  BTFSC STATUS, 0x2             
     1001    03E8         2C56                  GOTO 0x456                    
     1002    03E9         0844                  MOVF 0x44, W                  
     1003    03EA         3A03                  XORLW 0x3                     
     1004    03EB         1D03                  BTFSS STATUS, 0x2             
     1005    03EC         2BFA                  GOTO 0x3FA                    
     1006    03ED         0842                  MOVF 0x42, W                  
     1007    03EE         3A03                  XORLW 0x3                     
     1008    03EF         1D03                  BTFSS STATUS, 0x2             
     1009    03F0         2BF7                  GOTO 0x3F7                    
     1010    03F1         0020                  MOVLB 0x0                     
     1011    03F2         084B                  MOVF 0x4B, W                  
     1012    03F3         27A3                  CALL 0x7A3                    
     1013    03F4         3180                  MOVLP 0x0                     
     1014    03F5         24E9                  CALL 0x4E9                    
     1015    03F6         3180                  MOVLP 0x0                     
     1016    03F7         0021                  MOVLB 0x1                     
     1017    03F8         01C1                  CLRF 0xC1                     
     1018    03F9         2C56                  GOTO 0x456                    
     1019    03FA         27A8                  CALL 0x7A8                    
     1020    03FB         3180                  MOVLP 0x0                     
     1021    03FC         24E9                  CALL 0x4E9                    
     1022    03FD         3180                  MOVLP 0x0                     
     1023    03FE         3006                  MOVLW 0x6                     
     1024    03FF         0021                  MOVLB 0x1                     
     1025    0400         00C1                  MOVWF 0xC1                    
     1026    0401         2C56                  GOTO 0x456                    
     1027    0402         3001                  MOVLW 0x1                     
     1028    0403         026D                  SUBWF 0xED, W                 
     1029    0404         30F5                  MOVLW 0xF5                    
     1030    0405         1903                  BTFSC 0x83, 0x2               
     1031    0406         026C                  SUBWF 0xEC, W                 
     1032    0407         1803                  BTFSC 0x83, 0x0               
     1033    0408         2C14                  GOTO 0x414                    
     1034    0409         0020                  MOVLB 0x0                     
     1035    040A         0842                  MOVF 0x42, W                  
     1036    040B         00CB                  MOVWF 0x4B                    
     1037    040C         0841                  MOVF 0x41, W                  
     1038    040D         00CA                  MOVWF 0x4A                    
     1039    040E         27A8                  CALL 0x7A8                    
     1040    040F         3180                  MOVLP 0x0                     
     1041    0410         24E9                  CALL 0x4E9                    
     1042    0411         3180                  MOVLP 0x0                     
     1043    0412         01C1                  CLRF 0x41                     
     1044    0413         2BFE                  GOTO 0x3FE                    
     1045    0414         30FF                  MOVLW 0xFF                    
     1046    0415         2795                  CALL 0x795                    
     1047    0416         3180                  MOVLP 0x0                     
     1048    0417         2C56                  GOTO 0x456                    
     1049    0418         3001                  MOVLW 0x1                     
     1050    0419         026D                  SUBWF 0x6D, W                 
     1051    041A         30F5                  MOVLW 0xF5                    
     1052    041B         1903                  BTFSC STATUS, 0x2             
     1053    041C         026C                  SUBWF 0x6C, W                 
     1054    041D         1C03                  BTFSS STATUS, 0x0             
     1055    041E         2C35                  GOTO 0x435                    
     1056    041F         0A6C                  INCF 0x6C, W                  
     1057    0420         1903                  BTFSC STATUS, 0x2             
     1058    0421         0A6D                  INCF 0x6D, W                  
     1059    0422         1903                  BTFSC STATUS, 0x2             
     1060    0423         2C35                  GOTO 0x435                    
     1061    0424         30FF                  MOVLW 0xFF                    
     1062    0425         2795                  CALL 0x795                    
     1063    0426         3180                  MOVLP 0x0                     
     1064    0427         0842                  MOVF 0x42, W                  
     1065    0428         3A03                  XORLW 0x3                     
     1066    0429         1D03                  BTFSS STATUS, 0x2             
     1067    042A         2C56                  GOTO 0x456                    
     1068    042B         0849                  MOVF 0x49, W                  
     1069    042C         0642                  XORWF 0x42, W                 
     1070    042D         1D03                  BTFSS STATUS, 0x2             
     1071    042E         2C56                  GOTO 0x456                    
     1072    042F         084B                  MOVF 0x4B, W                  
     1073    0430         27A3                  CALL 0x7A3                    
     1074    0431         3180                  MOVLP 0x0                     
     1075    0432         24E9                  CALL 0x4E9                    
     1076    0433         3180                  MOVLP 0x0                     
     1077    0434         2C56                  GOTO 0x456                    
     1078    0435         0020                  MOVLB 0x0                     
     1079    0436         0844                  MOVF 0x44, W                  
     1080    0437         1903                  BTFSC STATUS, 0x2             
     1081    0438         2BED                  GOTO 0x3ED                    
     1082    0439         0844                  MOVF 0x44, W                  
     1083    043A         3A04                  XORLW 0x4                     
     1084    043B         1903                  BTFSC STATUS, 0x2             
     1085    043C         2BED                  GOTO 0x3ED                    
     1086    043D         0844                  MOVF 0x44, W                  
     1087    043E         3A03                  XORLW 0x3                     
     1088    043F         1D03                  BTFSS STATUS, 0x2             
     1089    0440         2C56                  GOTO 0x456                    
     1090    0441         2BED                  GOTO 0x3ED                    
     1091    0442         0841                  MOVF 0x41, W                  
     1092    0443         3A01                  XORLW 0x1                     
     1093    0444         1903                  BTFSC STATUS, 0x2             
     1094    0445         2BA9                  GOTO 0x3A9                    
     1095    0446         3A03                  XORLW 0x3                     
     1096    0447         1903                  BTFSC STATUS, 0x2             
     1097    0448         2BC8                  GOTO 0x3C8                    
     1098    0449         3A01                  XORLW 0x1                     
     1099    044A         1903                  BTFSC STATUS, 0x2             
     1100    044B         2BCF                  GOTO 0x3CF                    
     1101    044C         3A07                  XORLW 0x7                     
     1102    044D         1903                  BTFSC STATUS, 0x2             
     1103    044E         2BE5                  GOTO 0x3E5                    
     1104    044F         3A01                  XORLW 0x1                     
     1105    0450         1903                  BTFSC STATUS, 0x2             
     1106    0451         2C02                  GOTO 0x402                    
     1107    0452         3A03                  XORLW 0x3                     
     1108    0453         1903                  BTFSC STATUS, 0x2             
     1109    0454         2C18                  GOTO 0x418                    
     1110    0455         2BF1                  GOTO 0x3F1                    
     1111    0456         0020                  MOVLB 0x0                     
     1112    0457         08C8                  MOVF 0x48, F                  
     1113    0458         1D03                  BTFSS STATUS, 0x2             
     1114    0459         2C7D                  GOTO 0x47D                    
     1115    045A         0842                  MOVF 0x42, W                  
     1116    045B         0649                  XORWF 0x49, W                 
     1117    045C         1D03                  BTFSS STATUS, 0x2             
     1118    045D         2C63                  GOTO 0x463                    
     1119    045E         0021                  MOVLB 0x1                     
     1120    045F         0843                  MOVF 0xC3, W                  
     1121    0460         3AFF                  XORLW 0xFF                    
     1122    0461         1903                  BTFSC 0x83, 0x2               
     1123    0462         2C7D                  GOTO 0x47D                    
     1124    0463         0020                  MOVLB 0x0                     
     1125    0464         0849                  MOVF 0x49, W                  
     1126    0465         00C2                  MOVWF 0x42                    
     1127    0466         3542                  LSLF 0x42, W                  
     1128    0467         3E20                  ADDLW 0x20                    
     1129    0468         0086                  MOVWF FSR1                    
     1130    0469         3001                  MOVLW 0x1                     
     1131    046A         0087                  MOVWF FSR1H                   
     1132    046B         3F40                  MOVIW [0]FSR1                 
     1133    046C         00A9                  MOVWF 0x29                    
     1134    046D         3F41                  MOVIW [1]FSR1                 
     1135    046E         00AA                  MOVWF 0x2A                    
     1136    046F         0021                  MOVLB 0x1                     
     1137    0470         0843                  MOVF 0xC3, W                  
     1138    0471         0020                  MOVLB 0x0                     
     1139    0472         00C1                  MOVWF 0x41                    
     1140    0473         30FF                  MOVLW 0xFF                    
     1141    0474         0021                  MOVLB 0x1                     
     1142    0475         00C3                  MOVWF 0xC3                    
     1143    0476         0020                  MOVLB 0x0                     
     1144    0477         082A                  MOVF 0x2A, W                  
     1145    0478         0429                  IORWF 0x29, W                 
     1146    0479         1D03                  BTFSS STATUS, 0x2             
     1147    047A         2C7D                  GOTO 0x47D                    
     1148    047B         01C8                  CLRF 0x48                     
     1149    047C         0AC8                  INCF 0x48, F                  
     1150    047D         0020                  MOVLB 0x0                     
     1151    047E         082A                  MOVF 0x2A, W                  
     1152    047F         0429                  IORWF 0x29, W                 
     1153    0480         1903                  BTFSC STATUS, 0x2             
     1154    0481         2CE6                  GOTO 0x4E6                    
     1155    0482         0022                  MOVLB 0x2                     
     1156    0483         0843                  MOVF 0x143, W                 
     1157    0484         0442                  IORWF 0x142, W                
     1158    0485         1D03                  BTFSS 0x103, 0x2              
     1159    0486         2CD8                  GOTO 0x4D8                    
     1160    0487         0020                  MOVLB 0x0                     
     1161    0488         275C                  CALL 0x75C                    
     1162    0489         3180                  MOVLP 0x0                     
     1163    048A         24FD                  CALL 0x4FD                    
     1164    048B         3180                  MOVLP 0x0                     
     1165    048C         2746                  CALL 0x746                    
     1166    048D         3180                  MOVLP 0x0                     
     1167    048E         3142                  ADDFSR 1, 2                   
     1168    048F         0801                  MOVF INDF1, W                 
     1169    0490         00E4                  MOVWF 0x64                    
     1170    0491         3007                  MOVLW 0x7                     
     1171    0492         36E4                  LSRF 0x64, F                  
     1172    0493         0B89                  DECFSZ WREG, F                
     1173    0494         2C92                  GOTO 0x492                    
     1174    0495         1C64                  BTFSS 0x64, 0x0               
     1175    0496         2C99                  GOTO 0x499                    
     1176    0497         3014                  MOVLW 0x14                    
     1177    0498         2C9A                  GOTO 0x49A                    
     1178    0499         300D                  MOVLW 0xD                     
     1179    049A         00E7                  MOVWF 0x67                    
     1180    049B         275C                  CALL 0x75C                    
     1181    049C         3180                  MOVLP 0x0                     
     1182    049D         24FD                  CALL 0x4FD                    
     1183    049E         3180                  MOVLP 0x0                     
     1184    049F         2746                  CALL 0x746                    
     1185    04A0         3180                  MOVLP 0x0                     
     1186    04A1         3142                  ADDFSR 1, 2                   
     1187    04A2         3F40                  MOVIW [0]FSR1                 
     1188    04A3         00E4                  MOVWF 0x64                    
     1189    04A4         3F41                  MOVIW [1]FSR1                 
     1190    04A5         00E5                  MOVWF 0x65                    
     1191    04A6         00E6                  MOVWF 0x66                    
     1192    04A7         275C                  CALL 0x75C                    
     1193    04A8         3180                  MOVLP 0x0                     
     1194    04A9         24FD                  CALL 0x4FD                    
     1195    04AA         3180                  MOVLP 0x0                     
     1196    04AB         0874                  MOVF 0x74, W                  
     1197    04AC         0729                  ADDWF 0x29, W                 
     1198    04AD         0086                  MOVWF FSR1                    
     1199    04AE         0875                  MOVF 0x75, W                  
     1200    04AF         3D2A                  ADDWFC 0x2A, W                
     1201    04B0         0087                  MOVWF FSR1H                   
     1202    04B1         0801                  MOVF INDF1, W                 
     1203    04B2         00FA                  MOVWF 0x7A                    
     1204    04B3         0866                  MOVF 0x66, W                  
     1205    04B4         00FB                  MOVWF 0x7B                    
     1206    04B5         0867                  MOVF 0x67, W                  
     1207    04B6         252A                  CALL 0x52A                    
     1208    04B7         3180                  MOVLP 0x0                     
     1209    04B8         0020                  MOVLB 0x0                     
     1210    04B9         275C                  CALL 0x75C                    
     1211    04BA         3180                  MOVLP 0x0                     
     1212    04BB         24FD                  CALL 0x4FD                    
     1213    04BC         3180                  MOVLP 0x0                     
     1214    04BD         2746                  CALL 0x746                    
     1215    04BE         3180                  MOVLP 0x0                     
     1216    04BF         3144                  ADDFSR 1, 4                   
     1217    04C0         3F40                  MOVIW [0]FSR1                 
     1218    04C1         0022                  MOVLB 0x2                     
     1219    04C2         00C2                  MOVWF 0x142                   
     1220    04C3         3F41                  MOVIW [1]FSR1                 
     1221    04C4         00C3                  MOVWF 0x143                   
     1222    04C5         0020                  MOVLB 0x0                     
     1223    04C6         0AC1                  INCF 0x41, F                  
     1224    04C7         0842                  MOVF 0x42, W                  
     1225    04C8         3EA0                  ADDLW 0xA0                    
     1226    04C9         0086                  MOVWF FSR1                    
     1227    04CA         3001                  MOVLW 0x1                     
     1228    04CB         0087                  MOVWF FSR1H                   
     1229    04CC         0801                  MOVF INDF1, W                 
     1230    04CD         00F4                  MOVWF 0x74                    
     1231    04CE         0841                  MOVF 0x41, W                  
     1232    04CF         2512                  CALL 0x512                    
     1233    04D0         3180                  MOVLP 0x0                     
     1234    04D1         00C1                  MOVWF 0x41                    
     1235    04D2         300A                  MOVLW 0xA                     
     1236    04D3         0022                  MOVLB 0x2                     
     1237    04D4         02C2                  SUBWF 0x142, F                
     1238    04D5         3000                  MOVLW 0x0                     
     1239    04D6         3BC3                  SUBWFB 0x143, F               
     1240    04D7         2CE6                  GOTO 0x4E6                    
     1241    04D8         300A                  MOVLW 0xA                     
     1242    04D9         02C2                  SUBWF 0x142, F                
     1243    04DA         3000                  MOVLW 0x0                     
     1244    04DB         3BC3                  SUBWFB 0x143, F               
     1245    04DC         0843                  MOVF 0x143, W                 
     1246    04DD         0442                  IORWF 0x142, W                
     1247    04DE         1D03                  BTFSS 0x103, 0x2              
     1248    04DF         2CE4                  GOTO 0x4E4                    
     1249    04E0         0020                  MOVLB 0x0                     
     1250    04E1         0A41                  INCF 0x41, W                  
     1251    04E2         00E8                  MOVWF 0x68                    
     1252    04E3         2CE6                  GOTO 0x4E6                    
     1253    04E4         0020                  MOVLB 0x0                     
     1254    04E5         01E8                  CLRF 0x68                     
     1255    04E6         0020                  MOVLB 0x0                     
     1256    04E7         0868                  MOVF 0x68, W                  
     1257    04E8         0008                  RETURN                        
     1258    04E9         3000                  MOVLW 0x0                     
     1259    04EA         0275                  SUBWF 0x75, W                 
     1260    04EB         3004                  MOVLW 0x4                     
     1261    04EC         1903                  BTFSC STATUS, 0x2             
     1262    04ED         0274                  SUBWF 0x74, W                 
     1263    04EE         1803                  BTFSC STATUS, 0x0             
     1264    04EF         2CF9                  GOTO 0x4F9                    
     1265    04F0         0874                  MOVF 0x74, W                  
     1266    04F1         0020                  MOVLB 0x0                     
     1267    04F2         00C9                  MOVWF 0x49                    
     1268    04F3         0876                  MOVF 0x76, W                  
     1269    04F4         0021                  MOVLB 0x1                     
     1270    04F5         00C3                  MOVWF 0xC3                    
     1271    04F6         0020                  MOVLB 0x0                     
     1272    04F7         01C8                  CLRF 0x48                     
     1273    04F8         0008                  RETURN                        
     1274    04F9         0020                  MOVLB 0x0                     
     1275    04FA         01C8                  CLRF 0x48                     
     1276    04FB         0AC8                  INCF 0x48, F                  
     1277    04FC         0008                  RETURN                        
     1278    04FD         01F8                  CLRF 0x78                     
     1279    04FE         01F9                  CLRF 0x79                     
     1280    04FF         1C74                  BTFSS 0x74, 0x0               
     1281    0500         2D05                  GOTO 0x505                    
     1282    0501         0876                  MOVF 0x76, W                  
     1283    0502         07F8                  ADDWF 0x78, F                 
     1284    0503         0877                  MOVF 0x77, W                  
     1285    0504         3DF9                  ADDWFC 0x79, F                
     1286    0505         35F6                  LSLF 0x76, F                  
     1287    0506         0DF7                  RLF 0x77, F                   
     1288    0507         36F5                  LSRF 0x75, F                  
     1289    0508         0CF4                  RRF 0x74, F                   
     1290    0509         0875                  MOVF 0x75, W                  
     1291    050A         0474                  IORWF 0x74, W                 
     1292    050B         1D03                  BTFSS STATUS, 0x2             
     1293    050C         2CFF                  GOTO 0x4FF                    
     1294    050D         0879                  MOVF 0x79, W                  
     1295    050E         00F5                  MOVWF 0x75                    
     1296    050F         0878                  MOVF 0x78, W                  
     1297    0510         00F4                  MOVWF 0x74                    
     1298    0511         0008                  RETURN                        
     1299    0512         00F6                  MOVWF 0x76                    
     1300    0513         3008                  MOVLW 0x8                     
     1301    0514         00F7                  MOVWF 0x77                    
     1302    0515         01F8                  CLRF 0x78                     
     1303    0516         0876                  MOVF 0x76, W                  
     1304    0517         00F5                  MOVWF 0x75                    
     1305    0518         3007                  MOVLW 0x7                     
     1306    0519         36F5                  LSRF 0x75, F                  
     1307    051A         0B89                  DECFSZ WREG, F                
     1308    051B         2D19                  GOTO 0x519                    
     1309    051C         3578                  LSLF 0x78, W                  
     1310    051D         0475                  IORWF 0x75, W                 
     1311    051E         00F8                  MOVWF 0x78                    
     1312    051F         35F6                  LSLF 0x76, F                  
     1313    0520         0874                  MOVF 0x74, W                  
     1314    0521         0278                  SUBWF 0x78, W                 
     1315    0522         1C03                  BTFSS STATUS, 0x0             
     1316    0523         2D26                  GOTO 0x526                    
     1317    0524         0874                  MOVF 0x74, W                  
     1318    0525         02F8                  SUBWF 0x78, F                 
     1319    0526         0BF7                  DECFSZ 0x77, F                
     1320    0527         2D16                  GOTO 0x516                    
     1321    0528         0878                  MOVF 0x78, W                  
     1322    0529         0008                  RETURN                        
     1323    052A         00E1                  MOVWF 0x61                    
     1324    052B         087A                  MOVF 0x7A, W                  
     1325    052C         00F4                  MOVWF 0x74                    
     1326    052D         087B                  MOVF 0x7B, W                  
     1327    052E         00F5                  MOVWF 0x75                    
     1328    052F         2D59                  GOTO 0x559                    
     1329    0530         2D63                  GOTO 0x563 

//init?
                   
     1330    0531         307B                  MOVLW 0x7B                    
     1331    0532         0021                  MOVLB 0x1                     
     1332    0533         0099                  MOVWF OSCCON     	OSZI SET 0x7B    16 MHz HF         
     1333    0534         300B                  MOVLW 0xB                     
     1334    0535         0097                  MOVWF WDTCON                  
     1335    0536         30D2                  MOVLW 0xD2                    
     1336    0537         0095                  MOVWF OPTION_REG              
     1337    0538         3031                  MOVLW 0x31                    
     1338    0539         0020                  MOVLB 0x0                     
     1339    053A         009B                  MOVWF PR2                     
     1340    053B         304C                  MOVLW 0x4C                    
     1341    053C         009C                  MOVWF T2CON      	postscaler 1:5; timer on ; prescaler 1              
     1342    053D         30C2                  MOVLW 0xC2                    
     1343    053E         0022                  MOVLB 0x2                     
     1344    053F         0097                  MOVWF FVRCON                  
     1345    0540         018C                  CLRF LATA                     
     1346    0541         018D                  CLRF LATB                     
     1347    0542         018E                  CLRF LATC                     
     1348    0543         3003                  MOVLW 0x3                     
     1349    0544         0021                  MOVLB 0x1                     
     1350    0545         008C                  MOVWF TRISA                   
     1351    0546         30CF                  MOVLW 0xCF                    
     1352    0547         008D                  MOVWF TRISB                   
     1353    0548         3082                  MOVLW 0x82                    
     1354    0549         008E                  MOVWF TRISC                   
     1355    054A         30FF                  MOVLW 0xFF                    
     1356    054B         0090                  MOVWF TRISE                   
     1357    054C         3040                  MOVLW 0x40                    
     1358    054D         0023                  MOVLB 0x3                     
     1359    054E         008C                  MOVWF ANSELA                  
     1360    054F         018D                  CLRF ANSELB                   
     1361    0550         0024                  MOVLB 0x4                     
     1362    0551         018D                  CLRF WPUB                     
     1363    0552         0190                  CLRF WPUE                     
     1364    0553         3090                  MOVLW 0x90                    
     1365    0554         0021                  MOVLB 0x1                     
     1366    0555         009E                  MOVWF ADCON1                  
     1367    0556         3001                  MOVLW 0x1                     
     1368    0557         009D                  MOVWF ADCON0                  
     1369    0558         0008                  RETURN      ///////////Done this         

         
     1370    0559         0023                  MOVLB 0x3                     
     1371    055A         169E                  BSF TXSTA, 0x5          TXEN              
     1372    055B         159E                  BSF TXSTA, 0x3          SENDB send Break character bit       
     1373    055C         019A                  CLRF TXREG                    
     1374    055D         0874                  MOVF 0x1F4, W                 
     1375    055E         0021                  MOVLB 0x1                     
     1376    055F         00C4                  MOVWF 0xC4                    
     1377    0560         01C2                  CLRF 0xC2                     
     1378    0561         0AC2                  INCF 0xC2, F                  
     1379    0562         0008                  RETURN                        
     1380    0563         01C8                  CLRF 0xC8                     
     1381    0564         0AC8                  INCF 0xC8, F                  
     1382    0565         2585                  CALL 0x585                    
     1383    0566         3180                  MOVLP 0x0                     
     1384    0567         2582                  CALL 0x582                    
     1385    0568         3180                  MOVLP 0x0                     
     1386    0569         01F4                  CLRF 0xF4                     
     1387    056A         0874                  MOVF 0xF4, W                  
     1388    056B         3EDF                  ADDLW 0xDF                    
     1389    056C         0086                  MOVWF 0x86                    
     1390    056D         30FF                  MOVLW 0xFF                    
     1391    056E         0187                  CLRF 0x87                     
     1392    056F         0081                  MOVWF 0x81                    
     1393    0570         0874                  MOVF 0xF4, W                  
     1394    0571         3E51                  ADDLW 0x51                    
     1395    0572         0086                  MOVWF 0x86                    
     1396    0573         3001                  MOVLW 0x1                     
     1397    0574         0087                  MOVWF 0x87                    
     1398    0575         30FF                  MOVLW 0xFF                    
     1399    0576         0081                  MOVWF 0x81                    
     1400    0577         3008                  MOVLW 0x8                     
     1401    0578         0AF4                  INCF 0xF4, F                  
     1402    0579         0274                  SUBWF 0xF4, W                 
     1403    057A         1C03                  BTFSS 0x83, 0x0               
     1404    057B         2D6A                  GOTO 0x56A                    
     1405    057C         0020                  MOVLB 0x0                     
     1406    057D         3000                  MOVLW 0x0                     
     1407    057E         01AB                  CLRF 0x2B                     
     1408    057F         01AC                  CLRF 0x2C                     
     1409    0580         05C7                  ANDWF 0x47, F                 
     1410    0581         0008                  RETURN                        
     1411    0582         0020                  MOVLB 0x0                     
     1412    0583         01CD                  CLRF 0x4D                     
     1413    0584         2D97                  GOTO 0x597                    
     1414    0585         30A0                  MOVLW 0xA0                    
     1415    0586         0022                  MOVLB 0x2                     
     1416    0587         00A0                  MOVWF 0x120                   
     1417    0588         3002                  MOVLW 0x2                     
     1418    0589         00A1                  MOVWF 0x121                   
     1419    058A         3020                  MOVLW 0x20                    
     1420    058B         00A2                  MOVWF 0x122                   
     1421    058C         3002                  MOVLW 0x2                     
     1422    058D         00A3                  MOVWF 0x123                   
     1423    058E         30CC                  MOVLW 0xCC                    
     1424    058F         00A4                  MOVWF 0x124                   
     1425    0590         3001                  MOVLW 0x1                     
     1426    0591         00A5                  MOVWF 0x125                   
     1427    0592         3053                  MOVLW 0x53                    
     1428    0593         00A6                  MOVWF 0x126                   
     1429    0594         3002                  MOVLW 0x2                     
     1430    0595         00A7                  MOVWF 0x127                   
     1431    0596         0008                  RETURN                        
     1432    0597         0023                  MOVLB 0x3                     
     1433    0598         139D                  BCF RCSTA, 0x7                
     1434    0599         121E                  BCF TXSTA, 0x4                
     1435    059A         151E                  BSF TXSTA, 0x2                
     1436    059B         159F                  BSF BAUDCON, 0x3              
     1437    059C         30CF                  MOVLW 0xCF                    
     1438    059D         009B                  MOVWF SP1BRG                  
     1439    059E         019C                  CLRF SP1BRGH                  
     1440    059F         109F                  BCF BAUDCON, 0x1              
     1441    05A0         101F                  BCF BAUDCON, 0x0              
     1442    05A1         119E                  BCF TXSTA, 0x3                
     1443    05A2         119D                  BCF RCSTA, 0x3                
     1444    05A3         161D                  BSF RCSTA, 0x4                
     1445    05A4         129E                  BCF TXSTA, 0x5                
     1446    05A5         0020                  MOVLB 0x0                     
     1447    05A6         1291                  BCF PIR1, 0x5                 
     1448    05A7         0021                  MOVLB 0x1                     
     1449    05A8         1691                  BSF PIE1, 0x5                 
     1450    05A9         170B                  BSF 0x8B, 0x6                 
     1451    05AA         178B                  BSF 0x8B, 0x7                 
     1452    05AB         0023                  MOVLB 0x3                     
     1453    05AC         179D                  BSF RCSTA, 0x7                
     1454    05AD         0008                  RETURN                        
     1455    05AE         0020                  MOVLB 0x0                     
     1456    05AF         0844                  MOVF 0x44, W                  
     1457    05B0         3A04                  XORLW 0x4                     
     1458    05B1         1903                  BTFSC STATUS, 0x2             
     1459    05B2         01C4                  CLRF 0x44                     
     1460    05B3         0008                  RETURN                        
     1461    05B4         0020                  MOVLB 0x0                     
     1462    05B5         082C                  MOVF 0x2C, W                  
     1463    05B6         00F7                  MOVWF 0x77                    
     1464    05B7         082B                  MOVF 0x2B, W                  
     1465    05B8         00F6                  MOVWF 0x76                    
     1466    05B9         01AB                  CLRF 0x2B                     
     1467    05BA         01AC                  CLRF 0x2C                     
     1468    05BB         0877                  MOVF 0x77, W                  
     1469    05BC         00F5                  MOVWF 0x75                    
     1470    05BD         0876                  MOVF 0x76, W                  
     1471    05BE         00F4                  MOVWF 0x74                    
     1472    05BF         0008                  RETURN                        
     1473    05C0         0022                  MOVLB 0x2                     
     1474    05C1         01ED                  CLRF 0x16D                    
     1475    05C2         01EE                  CLRF 0x16E                    
     1476    05C3         0020                  MOVLB 0x0                     
     1477    05C4         084D                  MOVF 0x4D, W                  
     1478    05C5         3A00                  XORLW 0x0                     
     1479    05C6         1903                  BTFSC STATUS, 0x2             
     1480    05C7         2E8E                  GOTO 0x68E                    
     1481    05C8         3A01                  XORLW 0x1                     
     1482    05C9         1903                  BTFSC STATUS, 0x2             
     1483    05CA         2DD8                  GOTO 0x5D8                    
     1484    05CB         3A03                  XORLW 0x3                     
     1485    05CC         1903                  BTFSC STATUS, 0x2             
     1486    05CD         2DEE                  GOTO 0x5EE                    
     1487    05CE         3A01                  XORLW 0x1                     
     1488    05CF         1903                  BTFSC STATUS, 0x2             
     1489    05D0         2DF3                  GOTO 0x5F3                    
     1490    05D1         3A07                  XORLW 0x7                     
     1491    05D2         1903                  BTFSC STATUS, 0x2             
     1492    05D3         2E0A                  GOTO 0x60A                    
     1493    05D4         3A02                  XORLW 0x2                     
     1494    05D5         1903                  BTFSC STATUS, 0x2             
     1495    05D6         2E72                  GOTO 0x672                    
     1496    05D7         2E8E                  GOTO 0x68E                    
     1497    05D8         084C                  MOVF 0x4C, W                  
     1498    05D9         3A55                  XORLW 0x55                    
     1499    05DA         1D03                  BTFSS STATUS, 0x2             
     1500    05DB         2DE7                  GOTO 0x5E7                    
     1501    05DC         3002                  MOVLW 0x2                     
     1502    05DD         00CD                  MOVWF 0x4D                    
     1503    05DE         0021                  MOVLB 0x1                     
     1504    05DF         0B42                  DECFSZ 0xC2, W                
     1505    05E0         0008                  RETURN                        
     1506    05E1         0844                  MOVF 0xC4, W                  
     1507    05E2         0023                  MOVLB 0x3                     
     1508    05E3         009A                  MOVWF TXREG                   
     1509    05E4         0021                  MOVLB 0x1                     
     1510    05E5         01C2                  CLRF 0xC2                     
     1511    05E6         0008                  RETURN                        
     1512    05E7         2597                  CALL 0x597                    
     1513    05E8         0020                  MOVLB 0x0                     
     1514    05E9         01CD                  CLRF 0x4D                     
     1515    05EA         0021                  MOVLB 0x1                     
     1516    05EB         01D3                  CLRF 0xD3                     
     1517    05EC         0AD3                  INCF 0xD3, F                  
     1518    05ED         0008                  RETURN                        
     1519    05EE         01CD                  CLRF 0xCD                     
     1520    05EF         162B                  BSF 0xAB, 0x4                 
     1521    05F0         084C                  MOVF 0xCC, W                  
     1522    05F1         3188                  MOVLP 0x8                     
     1523    05F2         28D3                  GOTO 0xD3                     
     1524    05F3         30E3                  MOVLW 0xE3                    
     1525    05F4         00ED                  MOVWF 0xED                    
     1526    05F5         0021                  MOVLB 0x1                     
     1527    05F6         084E                  MOVF 0xCE, W                  
     1528    05F7         0020                  MOVLB 0x0                     
     1529    05F8         02ED                  SUBWF 0x6D, F                 
     1530    05F9         0846                  MOVF 0x46, W                  
     1531    05FA         076D                  ADDWF 0x6D, W                 
     1532    05FB         00EE                  MOVWF 0x6E                    
     1533    05FC         0086                  MOVWF FSR1                    
     1534    05FD         3001                  MOVLW 0x1                     
     1535    05FE         0087                  MOVWF FSR1H                   
     1536    05FF         084C                  MOVF 0x4C, W                  
     1537    0600         0081                  MOVWF INDF1                   
     1538    0601         0021                  MOVLB 0x1                     
     1539    0602         14CB                  BSF 0xCB, 0x1                 
     1540    0603         01C8                  CLRF 0xC8                     
     1541    0604         0BCE                  DECFSZ 0xCE, F                
     1542    0605         0008                  RETURN                        
     1543    0606         3004                  MOVLW 0x4                     
     1544    0607         0020                  MOVLB 0x0                     
     1545    0608         00CD                  MOVWF 0x4D                    
     1546    0609         0008                  RETURN                        
     1547    060A         084C                  MOVF 0x4C, W                  
     1548    060B         0023                  MOVLB 0x3                     
     1549    060C         00EB                  MOVWF 0x1EB                   
     1550    060D         0021                  MOVLB 0x1                     
     1551    060E         084F                  MOVF 0xCF, W                  
     1552    060F         3A14                  XORLW 0x14                    
     1553    0610         1D03                  BTFSS 0x83, 0x2               
     1554    0611         2E17                  GOTO 0x617                    
     1555    0612         0023                  MOVLB 0x3                     
     1556    0613         0862                  MOVF 0x1E2, W                 
     1557    0614         0022                  MOVLB 0x2                     
     1558    0615         00ED                  MOVWF 0x16D                   
     1559    0616         01EE                  CLRF 0x16E                    
     1560    0617         0022                  MOVLB 0x2                     
     1561    0618         01EB                  CLRF 0x16B                    
     1562    0619         01EC                  CLRF 0x16C                    
     1563    061A         0020                  MOVLB 0x0                     
     1564    061B         0846                  MOVF 0x46, W                  
     1565    061C         00ED                  MOVWF 0x6D                    
     1566    061D         01EE                  CLRF 0x6E                     
     1567    061E         086E                  MOVF 0x6E, W                  
     1568    061F         0022                  MOVLB 0x2                     
     1569    0620         026C                  SUBWF 0x16C, W                
     1570    0621         1D03                  BTFSS 0x103, 0x2              
     1571    0622         2E27                  GOTO 0x627                    
     1572    0623         0020                  MOVLB 0x0                     
     1573    0624         086D                  MOVF 0x6D, W                  
     1574    0625         0022                  MOVLB 0x2                     
     1575    0626         026B                  SUBWF 0x16B, W                
     1576    0627         1803                  BTFSC 0x103, 0x0              
     1577    0628         2E3C                  GOTO 0x63C                    
     1578    0629         086B                  MOVF 0x16B, W                 
     1579    062A         3EE3                  ADDLW 0xE3                    
     1580    062B         0086                  MOVWF 0x106                   
     1581    062C         3001                  MOVLW 0x1                     
     1582    062D         0087                  MOVWF 0x107                   
     1583    062E         0801                  MOVF 0x101, W                 
     1584    062F         07ED                  ADDWF 0x16D, F                
     1585    0630         1803                  BTFSC 0x103, 0x0              
     1586    0631         0AEE                  INCF 0x16E, F                 
     1587    0632         086E                  MOVF 0x16E, W                 
     1588    0633         00EA                  MOVWF 0x16A                   
     1589    0634         07ED                  ADDWF 0x16D, F                
     1590    0635         1803                  BTFSC 0x103, 0x0              
     1591    0636         0AEE                  INCF 0x16E, F                 
     1592    0637         01EE                  CLRF 0x16E                    
     1593    0638         0AEB                  INCF 0x16B, F                 
     1594    0639         1903                  BTFSC 0x103, 0x2              
     1595    063A         0AEC                  INCF 0x16C, F                 
     1596    063B         2E1A                  GOTO 0x61A                    
     1597    063C         096D                  COMF 0x16D, W                 
     1598    063D         00ED                  MOVWF 0x16D                   
     1599    063E         01EE                  CLRF 0x16E                    
     1600    063F         0020                  MOVLB 0x0                     
     1601    0640         084C                  MOVF 0x4C, W                  
     1602    0641         00ED                  MOVWF 0x6D                    
     1603    0642         01EE                  CLRF 0x6E                     
     1604    0643         0022                  MOVLB 0x2                     
     1605    0644         086E                  MOVF 0x16E, W                 
     1606    0645         0020                  MOVLB 0x0                     
     1607    0646         066E                  XORWF 0x6E, W                 
     1608    0647         1D03                  BTFSS STATUS, 0x2             
     1609    0648         2E4D                  GOTO 0x64D                    
     1610    0649         0022                  MOVLB 0x2                     
     1611    064A         086D                  MOVF 0x16D, W                 
     1612    064B         0020                  MOVLB 0x0                     
     1613    064C         066D                  XORWF 0x6D, W                 
     1614    064D         1903                  BTFSC STATUS, 0x2             
     1615    064E         2E5F                  GOTO 0x65F                    
     1616    064F         01CD                  CLRF 0x4D                     
     1617    0650         0021                  MOVLB 0x1                     
     1618    0651         01D3                  CLRF 0xD3                     
     1619    0652         0AD3                  INCF 0xD3, F                  
     1620    0653         0020                  MOVLB 0x0                     
     1621    0654         0844                  MOVF 0x44, W                  
     1622    0655         3A02                  XORLW 0x2                     
     1623    0656         1D03                  BTFSS STATUS, 0x2             
     1624    0657         0008                  RETURN                        
     1625    0658         0842                  MOVF 0x42, W                  
     1626    0659         3A03                  XORLW 0x3                     
     1627    065A         1D03                  BTFSS STATUS, 0x2             
     1628    065B         0008                  RETURN                        
     1629    065C         3003                  MOVLW 0x3                     
     1630    065D         00C4                  MOVWF 0x44                    
     1631    065E         0008                  RETURN                        
     1632    065F         0021                  MOVLB 0x1                     
     1633    0660         10CB                  BCF 0xCB, 0x1                 
     1634    0661         01C8                  CLRF 0xC8                     
     1635    0662         0020                  MOVLB 0x0                     
     1636    0663         01CD                  CLRF 0x4D                     
     1637    0664         268F                  CALL 0x68F                    
     1638    0665         3180                  MOVLP 0x0                     
     1639    0666         0020                  MOVLB 0x0                     
     1640    0667         0844                  MOVF 0x44, W                  
     1641    0668         3A02                  XORLW 0x2                     
     1642    0669         1D03                  BTFSS STATUS, 0x2             
     1643    066A         0008                  RETURN                        
     1644    066B         0842                  MOVF 0x42, W                  
     1645    066C         3A03                  XORLW 0x3                     
     1646    066D         1D03                  BTFSS STATUS, 0x2             
     1647    066E         0008                  RETURN                        
     1648    066F         3004                  MOVLW 0x4                     
     1649    0670         00C4                  MOVWF 0x44                    
     1650    0671         0008                  RETURN                        
     1651    0672         0021                  MOVLB 0x1                     
     1652    0673         082A                  MOVF 0xAA, W                  
     1653    0674         0020                  MOVLB 0x0                     
     1654    0675         064C                  XORWF 0x4C, W                 
     1655    0676         1903                  BTFSC STATUS, 0x2             
     1656    0677         2E84                  GOTO 0x684                    
     1657    0678         30FC                  MOVLW 0xFC                    
     1658    0679         01CD                  CLRF 0x4D                     
     1659    067A         0021                  MOVLB 0x1                     
     1660    067B         05C7                  ANDWF 0xC7, F                 
     1661    067C         01D3                  CLRF 0xD3                     
     1662    067D         0AD3                  INCF 0xD3, F                  
     1663    067E         0020                  MOVLB 0x0                     
     1664    067F         0B44                  DECFSZ 0x44, W                
     1665    0680         0008                  RETURN                        
     1666    0681         0842                  MOVF 0x42, W                  
     1667    0682         3A02                  XORLW 0x2                     
     1668    0683         2E5A                  GOTO 0x65A                    
     1669    0684         01CD                  CLRF 0x4D                     
     1670    0685         0B44                  DECFSZ 0x44, W                
     1671    0686         2E8D                  GOTO 0x68D                    
     1672    0687         0842                  MOVF 0x42, W                  
     1673    0688         3A02                  XORLW 0x2                     
     1674    0689         1D03                  BTFSS STATUS, 0x2             
     1675    068A         2E8D                  GOTO 0x68D                    
     1676    068B         3002                  MOVLW 0x2                     
     1677    068C         00C4                  MOVWF 0x44                    
     1678    068D         2F39                  GOTO 0x739                    
     1679    068E         0008                  RETURN                        
     1680    068F         2EEF                  GOTO 0x6EF                    
     1681    0690         2751                  CALL 0x751                    
     1682    0691         3180                  MOVLP 0x0                     
     1683    0692         01F4                  CLRF 0x74                     
     1684    0693         01F5                  CLRF 0x75                     
     1685    0694         278E                  CALL 0x78E                    
     1686    0695         3180                  MOVLP 0x0                     
     1687    0696         0020                  MOVLB 0x0                     
     1688    0697         0846                  MOVF 0x46, W                  
     1689    0698         0279                  SUBWF 0x79, W                 
     1690    0699         1803                  BTFSC STATUS, 0x0             
     1691    069A         2EA3                  GOTO 0x6A3                    
     1692    069B         0879                  MOVF 0x79, W                  
     1693    069C         3E51                  ADDLW 0x51                    
     1694    069D         0086                  MOVWF FSR1                    
     1695    069E         3001                  MOVLW 0x1                     
     1696    069F         0087                  MOVWF FSR1H                   
     1697    06A0         2775                  CALL 0x775                    
     1698    06A1         3180                  MOVLP 0x0                     
     1699    06A2         2E96                  GOTO 0x696                    
     1700    06A3         3189                  MOVLP 0x9                     
     1701    06A4         21DC                  CALL 0x1DC                    
     1702    06A5         0020                  MOVLB 0x0                     
     1703    06A6         1447                  BSF 0x47, 0x0                 
     1704    06A7         0008                  RETURN                        
     1705    06A8         2751                  CALL 0x751                    
     1706    06A9         3180                  MOVLP 0x0                     
     1707    06AA         01F4                  CLRF 0x74                     
     1708    06AB         01F5                  CLRF 0x75                     
     1709    06AC         278E                  CALL 0x78E                    
     1710    06AD         3180                  MOVLP 0x0                     
     1711    06AE         0020                  MOVLB 0x0                     
     1712    06AF         0846                  MOVF 0x46, W                  
     1713    06B0         0279                  SUBWF 0x79, W                 
     1714    06B1         1803                  BTFSC STATUS, 0x0             
     1715    06B2         2EC4                  GOTO 0x6C4                    
     1716    06B3         086F                  MOVF 0x6F, W                  
     1717    06B4         00F6                  MOVWF 0x76                    
     1718    06B5         30A4                  MOVLW 0xA4                    
     1719    06B6         35F6                  LSLF 0x76, F                  
     1720    06B7         35F6                  LSLF 0x76, F                  
     1721    06B8         35F6                  LSLF 0x76, F                  
     1722    06B9         0776                  ADDWF 0x76, W                 
     1723    06BA         00F7                  MOVWF 0x77                    
     1724    06BB         0879                  MOVF 0x79, W                  
     1725    06BC         0777                  ADDWF 0x77, W                 
     1726    06BD         00F8                  MOVWF 0x78                    
     1727    06BE         0086                  MOVWF FSR1                    
     1728    06BF         3001                  MOVLW 0x1                     
     1729    06C0         0087                  MOVWF FSR1H                   
     1730    06C1         2775                  CALL 0x775                    
     1731    06C2         3180                  MOVLP 0x0                     
     1732    06C3         2EAE                  GOTO 0x6AE                    
     1733    06C4         3189                  MOVLP 0x9                     
     1734    06C5         21DC                  CALL 0x1DC                    
     1735    06C6         3180                  MOVLP 0x0                     
     1736    06C7         0020                  MOVLB 0x0                     
     1737    06C8         086F                  MOVF 0x6F, W                  
     1738    06C9         076F                  ADDWF 0x6F, W                 
     1739    06CA         076F                  ADDWF 0x6F, W                 
     1740    06CB         3E5C                  ADDLW 0x5C                    
     1741    06CC         0086                  MOVWF FSR1                    
     1742    06CD         3001                  MOVLW 0x1                     
     1743    06CE         0087                  MOVWF FSR1H                   
     1744    06CF         1481                  BSF INDF1, 0x1                
     1745    06D0         2EE5                  GOTO 0x6E5                    
     1746    06D1         30FF                  MOVLW 0xFF                    
     1747    06D2         0021                  MOVLB 0x1                     
     1748    06D3         00E7                  MOVWF 0xE7                    
     1749    06D4         0008                  RETURN                        
     1750    06D5         30FF                  MOVLW 0xFF                    
     1751    06D6         0021                  MOVLB 0x1                     
     1752    06D7         00E8                  MOVWF 0xE8                    
     1753    06D8         0008                  RETURN                        
     1754    06D9         30FF                  MOVLW 0xFF                    
     1755    06DA         0021                  MOVLB 0x1                     
     1756    06DB         00E9                  MOVWF 0xE9                    
     1757    06DC         0008                  RETURN                        
     1758    06DD         30FF                  MOVLW 0xFF                    
     1759    06DE         0021                  MOVLB 0x1                     
     1760    06DF         00EB                  MOVWF 0xEB                    
     1761    06E0         0008                  RETURN                        
     1762    06E1         30FF                  MOVLW 0xFF                    
     1763    06E2         0021                  MOVLB 0x1                     
     1764    06E3         00EA                  MOVWF 0xEA                    
     1765    06E4         0008                  RETURN                        
     1766    06E5         086F                  MOVF 0xEF, W                  
     1767    06E6         0084                  MOVWF 0x84                    
     1768    06E7         3005                  MOVLW 0x5                     
     1769    06E8         0204                  SUBWF 0x84, W                 
     1770    06E9         1803                  BTFSC 0x83, 0x0               
     1771    06EA         0008                  RETURN                        
     1772    06EB         3198                  MOVLP 0x18                    
     1773    06EC         3504                  LSLF 0x84, W                  
     1774    06ED         3E36                  ADDLW 0x36                    
     1775    06EE         0082                  MOVWF 0x82                    
     1776    06EF         086F                  MOVF 0xEF, W                  
     1777    06F0         3AFB                  XORLW 0xFB                    
     1778    06F1         1903                  BTFSC 0x83, 0x2               
     1779    06F2         2E90                  GOTO 0x690                    
     1780    06F3         3A04                  XORLW 0x4                     
     1781    06F4         1903                  BTFSC 0x83, 0x2               
     1782    06F5         2EF7                  GOTO 0x6F7                    
     1783    06F6         2EA8                  GOTO 0x6A8                    
     1784    06F7         0008                  RETURN                        
     1785    06F8         01D2                  CLRF 0xD2                     
     1786    06F9         0020                  MOVLB 0x0                     
     1787    06FA         0830                  MOVF 0x30, W                  
     1788    06FB         0021                  MOVLB 0x1                     
     1789    06FC         00B8                  MOVWF 0xB8                    
     1790    06FD         0020                  MOVLB 0x0                     
     1791    06FE         082F                  MOVF 0x2F, W                  
     1792    06FF         0021                  MOVLB 0x1                     
     1793    0700         00B7                  MOVWF 0xB7                    
     1794    0701         0020                  MOVLB 0x0                     
     1795    0702         0834                  MOVF 0x34, W                  
     1796    0703         0021                  MOVLB 0x1                     
     1797    0704         00BA                  MOVWF 0xBA                    
     1798    0705         0020                  MOVLB 0x0                     
     1799    0706         0833                  MOVF 0x33, W                  
     1800    0707         0021                  MOVLB 0x1                     
     1801    0708         00B9                  MOVWF 0xB9                    
     1802    0709         0020                  MOVLB 0x0                     
     1803    070A         01AF                  CLRF 0x2F                     
     1804    070B         01B0                  CLRF 0x30                     
     1805    070C         30FF                  MOVLW 0xFF                    
     1806    070D         00B3                  MOVWF 0x33                    
     1807    070E         00B4                  MOVWF 0x34                    
     1808    070F         3004                  MOVLW 0x4                     
     1809    0710         1570                  BSF 0x70, 0x2                 
     1810    0711         14F0                  BSF 0x70, 0x1                 
     1811    0712         1470                  BSF 0x70, 0x0                 
     1812    0713         12F0                  BCF 0x70, 0x5                 
     1813    0714         1370                  BCF 0x70, 0x6                 
     1814    0715         01D7                  CLRF 0x57                     
     1815    0716         0257                  SUBWF 0x57, W                 
     1816    0717         1803                  BTFSC STATUS, 0x0             
     1817    0718         2F31                  GOTO 0x731                    
     1818    0719         3557                  LSLF 0x57, W                  
     1819    071A         3E21                  ADDLW 0x21                    
     1820    071B         0086                  MOVWF FSR1                    
     1821    071C         3000                  MOVLW 0x0                     
     1822    071D         0187                  CLRF FSR1H                    
     1823    071E         3FC0                  MOVWI [0]FSR1                 
     1824    071F         3FC1                  MOVWI [1]FSR1                 
     1825    0720         0857                  MOVF 0x57, W                  
     1826    0721         3EAD                  ADDLW 0xAD                    
     1827    0722         0086                  MOVWF FSR1                    
     1828    0723         0181                  CLRF INDF1                    
     1829    0724         0857                  MOVF 0x57, W                  
     1830    0725         3E49                  ADDLW 0x49                    
     1831    0726         0086                  MOVWF FSR1                    
     1832    0727         3001                  MOVLW 0x1                     
     1833    0728         0087                  MOVWF FSR1H                   
     1834    0729         0181                  CLRF INDF1                    
     1835    072A         0857                  MOVF 0x57, W                  
     1836    072B         3E45                  ADDLW 0x45                    
     1837    072C         0086                  MOVWF FSR1                    
     1838    072D         3004                  MOVLW 0x4                     
     1839    072E         0181                  CLRF INDF1                    
     1840    072F         0AD7                  INCF 0x57, F                  
     1841    0730         2F16                  GOTO 0x716                    
     1842    0731         01C0                  CLRF 0x40                     
     1843    0732         11F0                  BCF 0x70, 0x3                 
     1844    0733         1071                  BCF 0x71, 0x0                 
     1845    0734         1270                  BCF 0x70, 0x4                 
     1846    0735         13F0                  BCF 0x70, 0x7                 
     1847    0736         1271                  BCF 0x71, 0x4                 
     1848    0737         11F1                  BCF 0x71, 0x3                 
     1849    0738         0008                  RETURN                        
     1850    0739         2751                  CALL 0x751                    
     1851    073A         3180                  MOVLP 0x0                     
     1852    073B         0843                  MOVF 0x43, W                  
     1853    073C         3A3C                  XORLW 0x3C                    
     1854    073D         1D03                  BTFSS STATUS, 0x2             
     1855    073E         0008                  RETURN                        
     1856    073F         0021                  MOVLB 0x1                     
     1857    0740         08DF                  MOVF 0xDF, F                  
     1858    0741         1D03                  BTFSS 0x83, 0x2               
     1859    0742         0008                  RETURN                        
     1860    0743         0020                  MOVLB 0x0                     
     1861    0744         15AB                  BSF 0x2B, 0x3                 
     1862    0745         0008                  RETURN                        
     1863    0746         0874                  MOVF 0x74, W                  
     1864    0747         0729                  ADDWF 0x29, W                 
     1865    0748         00E2                  MOVWF 0x62                    
     1866    0749         0875                  MOVF 0x75, W                  
     1867    074A         3D2A                  ADDWFC 0x2A, W                
     1868    074B         00E3                  MOVWF 0x63                    
     1869    074C         0862                  MOVF 0x62, W                  
     1870    074D         0086                  MOVWF FSR1                    
     1871    074E         0863                  MOVF 0x63, W                  
     1872    074F         0087                  MOVWF FSR1H                   
     1873    0750         0008                  RETURN                        
     1874    0751         082C                  MOVF 0x2C, W                  
     1875    0752         39FF                  ANDLW 0xFF                    
     1876    0753         1D03                  BTFSS STATUS, 0x2             
     1877    0754         152B                  BSF 0x2B, 0x2                 
     1878    0755         082C                  MOVF 0x2C, W                  
     1879    0756         0643                  XORWF 0x43, W                 
     1880    0757         3900                  ANDLW 0x0                     
     1881    0758         0643                  XORWF 0x43, W                 
     1882    0759         00AC                  MOVWF 0x2C                    
     1883    075A         14AB                  BSF 0x2B, 0x1                 
     1884    075B         0008                  RETURN                        
     1885    075C         0841                  MOVF 0x41, W                  
     1886    075D         00F4                  MOVWF 0x74                    
     1887    075E         3006                  MOVLW 0x6                     
     1888    075F         01F5                  CLRF 0x75                     
     1889    0760         00F6                  MOVWF 0x76                    
     1890    0761         01F7                  CLRF 0x77                     
     1891    0762         0008                  RETURN                        
     1892    0763         00A0                  MOVWF 0x20                    
     1893    0764         0021                  MOVLB 0x1                     
     1894    0765         01D1                  CLRF 0xD1                     
     1895    0766         01F4                  CLRF 0xF4                     
     1896    0767         0AF4                  INCF 0xF4, F                  
     1897    0768         01F5                  CLRF 0xF5                     
     1898    0769         01F6                  CLRF 0xF6                     
     1899    076A         0008                  RETURN                        
     1900    076B         0020                  MOVLB 0x0                     
     1901    076C         0842                  MOVF 0x42, W                  
     1902    076D         00CB                  MOVWF 0x4B                    
     1903    076E         0841                  MOVF 0x41, W                  
     1904    076F         00CA                  MOVWF 0x4A                    
     1905    0770         3002                  MOVLW 0x2                     
     1906    0771         00F4                  MOVWF 0x74                    
     1907    0772         01F5                  CLRF 0x75                     
     1908    0773         01F6                  CLRF 0x76                     
     1909    0774         0008                  RETURN                        
     1910    0775         0879                  MOVF 0x79, W                  
     1911    0776         3EE3                  ADDLW 0xE3                    
     1912    0777         0084                  MOVWF FSR0                    
     1913    0778         3001                  MOVLW 0x1                     
     1914    0779         0085                  MOVWF FSR0H                   
     1915    077A         0800                  MOVF INDF0, W                 
     1916    077B         0081                  MOVWF INDF1                   
     1917    077C         0AF9                  INCF 0x79, F                  
     1918    077D         0008                  RETURN                        
     1919    077E         0086                  MOVWF FSR1                    
     1920    077F         3001                  MOVLW 0x1                     
     1921    0780         0087                  MOVWF FSR1H                   
     1922    0781         0861                  MOVF 0x61, W                  
     1923    0782         3FC0                  MOVWI [0]FSR1                 
     1924    0783         0862                  MOVF 0x62, W                  
     1925    0784         3FC1                  MOVWI [1]FSR1                 
     1926    0785         0008                  RETURN                        
     1927    0786         0084                  MOVWF FSR0                    
     1928    0787         3001                  MOVLW 0x1                     
     1929    0788         0085                  MOVWF FSR0H                   
     1930    0789         3F40                  MOVIW [0]FSR1                 
     1931    078A         3F80                  MOVWI [0]FSR0                 
     1932    078B         3F41                  MOVIW [1]FSR1                 
     1933    078C         3F81                  MOVWI [1]FSR0                 
     1934    078D         0008                  RETURN                        
     1935    078E         0875                  MOVF 0x75, W                  
     1936    078F         0021                  MOVLB 0x1                     
     1937    0790         00B4                  MOVWF 0xB4                    
     1938    0791         0874                  MOVF 0xF4, W                  
     1939    0792         00B3                  MOVWF 0xB3                    
     1940    0793         01F9                  CLRF 0xF9                     
     1941    0794         0008                  RETURN                        
     1942    0795         00EC                  MOVWF 0xEC                    
     1943    0796         00ED                  MOVWF 0xED                    
     1944    0797         3003                  MOVLW 0x3                     
     1945    0798         01C1                  CLRF 0xC1                     
     1946    0799         0020                  MOVLB 0x0                     
     1947    079A         00C4                  MOVWF 0x44                    
     1948    079B         0008                  RETURN                        
     1949    079C         0876                  MOVF 0x76, W                  
     1950    079D         0020                  MOVLB 0x0                     
     1951    079E         00E2                  MOVWF 0x62                    
     1952    079F         0875                  MOVF 0x75, W                  
     1953    07A0         00E1                  MOVWF 0x61                    
     1954    07A1         0462                  IORWF 0x62, W                 
     1955    07A2         0008                  RETURN                        
     1956    07A3         00F4                  MOVWF 0x74                    
     1957    07A4         01F5                  CLRF 0x75                     
     1958    07A5         084A                  MOVF 0x4A, W                  
     1959    07A6         00F6                  MOVWF 0x76                    
     1960    07A7         0008                  RETURN                        
     1961    07A8         3003                  MOVLW 0x3                     
     1962    07A9         00F4                  MOVWF 0x74                    
     1963    07AA         01F5                  CLRF 0x75                     
     1964    07AB         01F6                  CLRF 0x76                     
     1965    07AC         0008                  RETURN                        
     1966    07AD         3190                  MOVLP 0x10                    
     1967    07AE         28E7                  GOTO 0xE7                     
     1968    07AF         3190                  MOVLP 0x10                    
     1969    07B0         28F5                  GOTO 0xF5                     
     1970    07B1         3191                  MOVLP 0x11                    
     1971    07B2         2938                  GOTO 0x138                    
     1972    07B3         3191                  MOVLP 0x11                    
     1973    07B4         294E                  GOTO 0x14E                    
     1974    07B5         3191                  MOVLP 0x11                    
     1975    07B6         295E                  GOTO 0x15E                    
     1976    07B7         3191                  MOVLP 0x11                    
     1977    07B8         2968                  GOTO 0x168                    
     1978    07B9         3191                  MOVLP 0x11                    
     1979    07BA         2972                  GOTO 0x172                    
     1980    07BB         3191                  MOVLP 0x11                    
     1981    07BC         2985                  GOTO 0x185                    
     1982    07BD         3191                  MOVLP 0x11                    
     1983    07BE         29A3                  GOTO 0x1A3                    
     1984    07BF         3193                  MOVLP 0x13                    
     1985    07C0         2B94                  GOTO 0x394                    
     1986    07C1         3192                  MOVLP 0x12                    
     1987    07C2         2A24                  GOTO 0x224                    
     1988    07C3         3192                  MOVLP 0x12                    
     1989    07C4         2A2E                  GOTO 0x22E                    
     1990    07C5         3192                  MOVLP 0x12                    
     1991    07C6         2A3C                  GOTO 0x23C                    
     1992    07C7         3192                  MOVLP 0x12                    
     1993    07C8         2A55                  GOTO 0x255                    
     1994    07C9         3192                  MOVLP 0x12                    
     1995    07CA         2A60                  GOTO 0x260                    
     1996    07CB         3192                  MOVLP 0x12                    
     1997    07CC         2A6E                  GOTO 0x26E                    
     1998    07CD         3192                  MOVLP 0x12                    
     1999    07CE         2ABC                  GOTO 0x2BC                    
     2000    07CF         3192                  MOVLP 0x12                    
     2001    07D0         2AC7                  GOTO 0x2C7                    
     2002    07D1         3192                  MOVLP 0x12                    
     2003    07D2         2AD5                  GOTO 0x2D5                    
     2004    07D3         3192                  MOVLP 0x12                    
     2005    07D4         2AEF                  GOTO 0x2EF                    
     2006    07D5         3192                  MOVLP 0x12                    
     2007    07D6         2AFA                  GOTO 0x2FA                    
     2008    07D7         3193                  MOVLP 0x13                    
     2009    07D8         2B08                  GOTO 0x308                    
     2010    07D9         3191                  MOVLP 0x11                    
     2011    07DA         29B6                  GOTO 0x1B6                    
     2012    07DB         3191                  MOVLP 0x11                    
     2013    07DC         29C6                  GOTO 0x1C6                    
     2014    07DD         3191                  MOVLP 0x11                    
     2015    07DE         29D4                  GOTO 0x1D4                    
     2016    07DF         3193                  MOVLP 0x13                    
     2017    07E0         2B57                  GOTO 0x357                    
     2018    07E1         3193                  MOVLP 0x13                    
     2019    07E2         2B64                  GOTO 0x364                    
     2020    07E3         3193                  MOVLP 0x13                    
     2021    07E4         2B72                  GOTO 0x372                    
     2022    07E5         3193                  MOVLP 0x13                    
     2023    07E6         2B89                  GOTO 0x389                    
     2024    07E7         3190                  MOVLP 0x10                    
     2025    07E8         28E6                  GOTO 0xE6                     
     2026    07E9         3193                  MOVLP 0x13                    
     2027    07EA         2BA2                  GOTO 0x3A2                    
     2028    07EB         3190                  MOVLP 0x10                    
     2029    07EC         28E6                  GOTO 0xE6                     
     2030    07ED         3191                  MOVLP 0x11                    
     2031    07EE         2949                  GOTO 0x149                    
     2032    07EF         3193                  MOVLP 0x13                    
     2033    07F0         2BA7                  GOTO 0x3A7                    
     2034    07F1         3195                  MOVLP 0x15                    
     2035    07F2         2D8E                  GOTO 0x58E                    
     2036    07F3         3196                  MOVLP 0x16                    
     2037    07F4         2ED4                  GOTO 0x6D4                    
     2038    07F5         3197                  MOVLP 0x17                    
     2039    07F6         2F0D                  GOTO 0x70D                    
     2040    07F7         3197                  MOVLP 0x17                    
     2041    07F8         2F30                  GOTO 0x730                    
     2042    07F9         3197                  MOVLP 0x17                    
     2043    07FA         2F65                  GOTO 0x765                    
     2044    07FB         3197                  MOVLP 0x17	JUMP  from  1FFE                    
     2045    07FC         2F41                  GOTO 0x741                    
     2046    07FD         3197                  MOVLP 0x17                    
     2047    07FE         2F7A                  GOTO 0x77A                    
     2048    07FF         0008                  RETURN                        
     2049    0800         3FFF                  MOVWI [-1]FSR1                
     2050    0801         3FFF                  MOVWI [-1]FSR1                
     2051    0802         01F4                  CLRF 0x74                     
     2052    0803         01F5                  CLRF 0x75                     
     2053    0804         0008                  RETURN                        
     2054    0805         340B                  RETLW 0xB                     
     2055    0806         3402                  RETLW 0x2                     
     2056    0807         3401                  RETLW 0x1                     
     2057    0808         3401                  RETLW 0x1                     
     2058    0809         3400                  RETLW 0x0                     
     2059    080A         3400                  RETLW 0x0                     
     2060    080B         3400                  RETLW 0x0                     
     2061    080C         3400                  RETLW 0x0                     
     2062    080D         3400                  RETLW 0x0                     
     2063    080E         3400                  RETLW 0x0                     
     2064    080F         3400                  RETLW 0x0                     
     2065    0810         3400                  RETLW 0x0                     
     2066    0811         3400                  RETLW 0x0                     
     2067    0812         3400                  RETLW 0x0                     
     2068    0813         3400                  RETLW 0x0                     
     2069    0814         34FF                  RETLW 0xFF                    
     2070    0815         34FF                  RETLW 0xFF                    
     2071    0816         34FF                  RETLW 0xFF                    
     2072    0817         34FF                  RETLW 0xFF                    
     2073    0818         34FF                  RETLW 0xFF                    
     2074    0819         3400                  RETLW 0x0                     
     2075    081A         3400                  RETLW 0x0                     
     2076    081B         3400                  RETLW 0x0                     
     2077    081C         34FF                  RETLW 0xFF                    
     2078    081D         34FF                  RETLW 0xFF                    
     2079    081E         34FF                  RETLW 0xFF                    
     2080    081F         34FF                  RETLW 0xFF                    
     2081    0820         34FF                  RETLW 0xFF                    
     2082    0821         3400                  RETLW 0x0                     
     2083    0822         3400                  RETLW 0x0                     
     2084    0823         3400                  RETLW 0x0                     
     2085    0824         34FF                  RETLW 0xFF                    
     2086    0825         34FF                  RETLW 0xFF                    
     2087    0826         34FF                  RETLW 0xFF                    
     2088    0827         34FF                  RETLW 0xFF                    
     2089    0828         34FF                  RETLW 0xFF                    
     2090    0829         3400                  RETLW 0x0                     
     2091    082A         3400                  RETLW 0x0                     
     2092    082B         3480                  RETLW 0x80                    
     2093    082C         34FF                  RETLW 0xFF                    
     2094    082D         34FF                  RETLW 0xFF                    
     2095    082E         34FF                  RETLW 0xFF                    
     2096    082F         34FF                  RETLW 0xFF                    
     2097    0830         34FF                  RETLW 0xFF                    
     2098    0831         343C                  RETLW 0x3C                    
     2099    0832         3400                  RETLW 0x0                     
     2100    0833         3400                  RETLW 0x0                     
     2101    0834         3408                  RETLW 0x8                     
     2102    0835         34E8                  RETLW 0xE8                    
     2103    0836         3403                  RETLW 0x3                     
     2104    0837         0023                  MOVLB 0x3                     
     2105    0838         081D                  MOVF RCSTA, W                 
     2106    0839         0021                  MOVLB 0x1                     
     2107    083A         00CA                  MOVWF 0xCA                    
     2108    083B         3006                  MOVLW 0x6                     
     2109    083C         05CA                  ANDWF 0xCA, F                 
     2110    083D         0023                  MOVLB 0x3                     
     2111    083E         0819                  MOVF RCREG, W                 
     2112    083F         0020                  MOVLB 0x0                     
     2113    0840         00CC                  MOVWF 0x4C                    
     2114    0841         0021                  MOVLB 0x1                     
     2115    0842         08CA                  MOVF 0xCA, F                  
     2116    0843         1D03                  BTFSS 0x83, 0x2               
     2117    0844         2869                  GOTO 0x69                     
     2118    0845         0020                  MOVLB 0x0                     
     2119    0846         084D                  MOVF 0x4D, W                  
     2120    0847         3A05                  XORLW 0x5                     
     2121    0848         1D03                  BTFSS STATUS, 0x2             
     2122    0849         2861                  GOTO 0x61                     
     2123    084A         0021                  MOVLB 0x1                     
     2124    084B         082A                  MOVF 0xAA, W                  
     2125    084C         0020                  MOVLB 0x0                     
     2126    084D         064C                  XORWF 0x4C, W                 
     2127    084E         1903                  BTFSC STATUS, 0x2             
     2128    084F         2860                  GOTO 0x60                     
     2129    0850         30FC                  MOVLW 0xFC                    
     2130    0851         01CD                  CLRF 0x4D                     
     2131    0852         0021                  MOVLB 0x1                     
     2132    0853         05C7                  ANDWF 0xC7, F                 
     2133    0854         01D3                  CLRF 0xD3                     
     2134    0855         0AD3                  INCF 0xD3, F                  
     2135    0856         0020                  MOVLB 0x0                     
     2136    0857         0B44                  DECFSZ 0x44, W                
     2137    0858         0008                  RETURN                        
     2138    0859         0842                  MOVF 0x42, W                  
     2139    085A         3A02                  XORLW 0x2                     
     2140    085B         1D03                  BTFSS STATUS, 0x2             
     2141    085C         0008                  RETURN                        
     2142    085D         3003                  MOVLW 0x3                     
     2143    085E         00C4                  MOVWF 0x44                    
     2144    085F         0008                  RETURN                        
     2145    0860         2893                  GOTO 0x93                     
     2146    0861         0848                  MOVF 0x48, W                  
     2147    0862         1903                  BTFSC STATUS, 0x2             
     2148    0863         2866                  GOTO 0x66                     
     2149    0864         162B                  BSF 0x2B, 0x4                 
     2150    0865         0008                  RETURN                        
     2151    0866         0021                  MOVLB 0x1                     
     2152    0867         1449                  BSF 0xC9, 0x0                 
     2153    0868         0008                  RETURN                        
     2154    0869         1CCA                  BTFSS 0xCA, 0x1               
     2155    086A         2875                  GOTO 0x75                     
     2156    086B         0023                  MOVLB 0x3                     
     2157    086C         121D                  BCF RCSTA, 0x4                
     2158    086D         0020                  MOVLB 0x0                     
     2159    086E         01CD                  CLRF 0x4D                     
     2160    086F         0021                  MOVLB 0x1                     
     2161    0870         01D3                  CLRF 0xD3                     
     2162    0871         0AD3                  INCF 0xD3, F                  
     2163    0872         0023                  MOVLB 0x3                     
     2164    0873         161D                  BSF RCSTA, 0x4                
     2165    0874         0008                  RETURN                        
     2166    0875         1D4A                  BTFSS 0x1CA, 0x2              
     2167    0876         0008                  RETURN                        
     2168    0877         0020                  MOVLB 0x0                     
     2169    0878         08CC                  MOVF 0x4C, F                  
     2170    0879         1D03                  BTFSS STATUS, 0x2             
     2171    087A         2884                  GOTO 0x84                     
     2172    087B         01CD                  CLRF 0x4D                     
     2173    087C         0ACD                  INCF 0x4D, F                  
     2174    087D         0021                  MOVLB 0x1                     
     2175    087E         0B42                  DECFSZ 0xC2, W                
     2176    087F         0008                  RETURN                        
     2177    0880         3055                  MOVLW 0x55                    
     2178    0881         0023                  MOVLB 0x3                     
     2179    0882         009A                  MOVWF TXREG                   
     2180    0883         0008                  RETURN                        
     2181    0884         084D                  MOVF 0x1CD, W                 
     2182    0885         1903                  BTFSC 0x183, 0x2              
     2183    0886         0008                  RETURN                        
     2184    0887         3003                  MOVLW 0x3                     
     2185    0888         024D                  SUBWF 0x1CD, W                
     2186    0889         1C03                  BTFSS 0x183, 0x0              
     2187    088A         288E                  GOTO 0x8E                     
     2188    088B         0021                  MOVLB 0x1                     
     2189    088C         01D3                  CLRF 0xD3                     
     2190    088D         0AD3                  INCF 0xD3, F                  
     2191    088E         0020                  MOVLB 0x0                     
     2192    088F         01CD                  CLRF 0x4D                     
     2193    0890         0021                  MOVLB 0x1                     
     2194    0891         01C2                  CLRF 0xC2                     
     2195    0892         0008                  RETURN                        
     2196    0893         0021                  MOVLB 0x1                     
     2197    0894         0847                  MOVF 0xC7, W                  
     2198    0895         3903                  ANDLW 0x3                     
     2199    0896         3A01                  XORLW 0x1                     
     2200    0897         1D03                  BTFSS 0x83, 0x2               
     2201    0898         289C                  GOTO 0x9C                     
     2202    0899         0829                  MOVF 0xA9, W                  
     2203    089A         20A3                  CALL 0xA3                     
     2204    089B         0008                  RETURN                        
     2205    089C         0847                  MOVF 0xC7, W                  
     2206    089D         3903                  ANDLW 0x3                     
     2207    089E         3A02                  XORLW 0x2                     
     2208    089F         1D03                  BTFSS 0x83, 0x2               
     2209    08A0         0008                  RETURN                        
     2210    08A1         082C                  MOVF 0xAC, W                  
     2211    08A2         28C4                  GOTO 0xC4                     
     2212    08A3         00F2                  MOVWF 0xF2                    
     2213    08A4         3005                  MOVLW 0x5                     
     2214    08A5         0020                  MOVLB 0x0                     
     2215    08A6         00CD                  MOVWF 0x4D                    
     2216    08A7         0872                  MOVF 0x72, W                  
     2217    08A8         0086                  MOVWF FSR1                    
     2218    08A9         3001                  MOVLW 0x1                     
     2219    08AA         0087                  MOVWF FSR1H                   
     2220    08AB         0801                  MOVF INDF1, W                 
     2221    08AC         0021                  MOVLB 0x1                     
     2222    08AD         00AA                  MOVWF 0xAA                    
     2223    08AE         0023                  MOVLB 0x3                     
     2224    08AF         1E9E                  BTFSS TXSTA, 0x5              
     2225    08B0         169E                  BSF TXSTA, 0x5                
     2226    08B1         0872                  MOVF 0x1F2, W                 
     2227    08B2         0086                  MOVWF 0x186                   
     2228    08B3         0801                  MOVF 0x181, W                 
     2229    08B4         009A                  MOVWF TXREG                   
     2230    08B5         0A72                  INCF 0x1F2, W                 
     2231    08B6         0021                  MOVLB 0x1                     
     2232    08B7         00A9                  MOVWF 0xA9                    
     2233    08B8         03A8                  DECF 0xA8, F                  
     2234    08B9         0847                  MOVF 0xC7, W                  
     2235    08BA         39FC                  ANDLW 0xFC                    
     2236    08BB         3801                  IORLW 0x1                     
     2237    08BC         00C7                  MOVWF 0xC7                    
     2238    08BD         08A8                  MOVF 0xA8, F                  
     2239    08BE         1D03                  BTFSS 0x83, 0x2               
     2240    08BF         0008                  RETURN                        
     2241    08C0         39FC                  ANDLW 0xFC                    
     2242    08C1         3802                  IORLW 0x2                     
     2243    08C2         00C7                  MOVWF 0xC7                    
     2244    08C3         0008                  RETURN                        
     2245    08C4         00F2                  MOVWF 0xF2                    
     2246    08C5         3006                  MOVLW 0x6                     
     2247    08C6         0020                  MOVLB 0x0                     
     2248    08C7         00CD                  MOVWF 0x4D                    
     2249    08C8         0872                  MOVF 0x72, W                  
     2250    08C9         0023                  MOVLB 0x3                     
     2251    08CA         009A                  MOVWF TXREG                   
     2252    08CB         1E9E                  BTFSS TXSTA, 0x5              
     2253    08CC         169E                  BSF TXSTA, 0x5                
     2254    08CD         0872                  MOVF 0x1F2, W                 
     2255    08CE         0021                  MOVLB 0x1                     
     2256    08CF         00AA                  MOVWF 0xAA                    
     2257    08D0         30FC                  MOVLW 0xFC                    
     2258    08D1         05C7                  ANDWF 0xC7, F                 
     2259    08D2         0008                  RETURN                        
     2260    08D3         00EB                  MOVWF 0xEB                    
     2261    08D4         00C3                  MOVWF 0xC3                    
     2262    08D5         2939                  GOTO 0x139                    
     2263    08D6         30FB                  MOVLW 0xFB                    
     2264    08D7         00EF                  MOVWF 0xEF                    
     2265    08D8         086B                  MOVF 0xEB, W                  
     2266    08D9         0023                  MOVLB 0x3                     
     2267    08DA         00E2                  MOVWF 0x1E2                   
     2268    08DB         3008                  MOVLW 0x8                     
     2269    08DC         00F4                  MOVWF 0x1F4                   
     2270    08DD         300D                  MOVLW 0xD                     
     2271    08DE         2948                  GOTO 0x148                    
     2272    08DF         0845                  MOVF 0x1C5, W                 
     2273    08E0         1903                  BTFSC 0x183, 0x2              
     2274    08E1         0008                  RETURN                        
     2275    08E2         01C5                  CLRF 0x1C5                    
     2276    08E3         086B                  MOVF 0x1EB, W                 
     2277    08E4         0023                  MOVLB 0x3                     
     2278    08E5         00E2                  MOVWF 0x1E2                   
     2279    08E6         30DF                  MOVLW 0xDF                    
     2280    08E7         0020                  MOVLB 0x0                     
     2281    08E8         00E6                  MOVWF 0x66                    
     2282    08E9         3008                  MOVLW 0x8                     
     2283    08EA         01E7                  CLRF 0x67                     
     2284    08EB         00E8                  MOVWF 0x68                    
     2285    08EC         300D                  MOVLW 0xD                     
     2286    08ED         2954                  GOTO 0x154                    
     2287    08EE         305B                  MOVLW 0x5B                    
     2288    08EF         00EC                  MOVWF 0x6C                    
     2289    08F0         01EA                  CLRF 0x6A                     
     2290    08F1         086C                  MOVF 0x6C, W                  
     2291    08F2         0086                  MOVWF FSR1                    
     2292    08F3         3001                  MOVLW 0x1                     
     2293    08F4         0087                  MOVWF FSR1H                   
     2294    08F5         0801                  MOVF INDF1, W                 
     2295    08F6         066B                  XORWF 0x6B, W                 
     2296    08F7         1D03                  BTFSS STATUS, 0x2             
     2297    08F8         292E                  GOTO 0x12E                    
     2298    08F9         086A                  MOVF 0x6A, W                  
     2299    08FA         00EF                  MOVWF 0x6F                    
     2300    08FB         0A6C                  INCF 0x6C, W                  
     2301    08FC         0086                  MOVWF FSR1                    
     2302    08FD         1F81                  BTFSS INDF1, 0x7              
     2303    08FE         2901                  GOTO 0x101                    
     2304    08FF         3014                  MOVLW 0x14                    
     2305    0900         2902                  GOTO 0x102                    
     2306    0901         300D                  MOVLW 0xD                     
     2307    0902         00E9                  MOVWF 0x69                    
     2308    0903         0A6C                  INCF 0x6C, W                  
     2309    0904         0086                  MOVWF FSR1                    
     2310    0905         3001                  MOVLW 0x1                     
     2311    0906         0087                  MOVWF FSR1H                   
     2312    0907         0843                  MOVF 0x43, W                  
     2313    0908         1C01                  BTFSS INDF1, 0x0              
     2314    0909         2923                  GOTO 0x123                    
     2315    090A         0023                  MOVLB 0x3                     
     2316    090B         00E2                  MOVWF 0x1E2                   
     2317    090C         0020                  MOVLB 0x0                     
     2318    090D         086A                  MOVF 0x6A, W                  
     2319    090E         0709                  ADDWF WREG, W                 
     2320    090F         0709                  ADDWF WREG, W                 
     2321    0910         0709                  ADDWF WREG, W                 
     2322    0911         3EA4                  ADDLW 0xA4                    
     2323    0912         00E6                  MOVWF 0x66                    
     2324    0913         3001                  MOVLW 0x1                     
     2325    0914         00E7                  MOVWF 0x67                    
     2326    0915         086C                  MOVF 0x6C, W                  
     2327    0916         0086                  MOVWF FSR1                    
     2328    0917         3001                  MOVLW 0x1                     
     2329    0918         3F42                  MOVIW [2]FSR1                 
     2330    0919         00E8                  MOVWF 0x68                    
     2331    091A         0869                  MOVF 0x69, W                  
     2332    091B         2154                  CALL 0x154                    
     2333    091C         0020                  MOVLB 0x0                     
     2334    091D         0A6C                  INCF 0x6C, W                  
     2335    091E         0086                  MOVWF FSR1                    
     2336    091F         3001                  MOVLW 0x1                     
     2337    0920         0087                  MOVWF FSR1H                   
     2338    0921         1081                  BCF INDF1, 0x1                
     2339    0922         0008                  RETURN                        
     2340    0923         0023                  MOVLB 0x3                     
     2341    0924         00E2                  MOVWF 0x1E2                   
     2342    0925         0020                  MOVLB 0x0                     
     2343    0926         086C                  MOVF 0x6C, W                  
     2344    0927         0086                  MOVWF FSR1                    
     2345    0928         3001                  MOVLW 0x1                     
     2346    0929         0087                  MOVWF FSR1H                   
     2347    092A         3F42                  MOVIW [2]FSR1                 
     2348    092B         00F4                  MOVWF 0x74                    
     2349    092C         0869                  MOVF 0x69, W                  
     2350    092D         2948                  GOTO 0x148                    
     2351    092E         30FF                  MOVLW 0xFF                    
     2352    092F         00EF                  MOVWF 0x6F                    
     2353    0930         3003                  MOVLW 0x3                     
     2354    0931         07EC                  ADDWF 0x6C, F                 
     2355    0932         3005                  MOVLW 0x5                     
     2356    0933         0AEA                  INCF 0x6A, F                  
     2357    0934         026A                  SUBWF 0x6A, W                 
     2358    0935         1C03                  BTFSS STATUS, 0x0             
     2359    0936         28F1                  GOTO 0xF1                     
     2360    0937         01CD                  CLRF 0x4D                     
     2361    0938         0008                  RETURN                        
     2362    0939         086B                  MOVF 0x6B, W                  
     2363    093A         3A3C                  XORLW 0x3C                    
     2364    093B         1903                  BTFSC STATUS, 0x2             
     2365    093C         28DF                  GOTO 0xDF                     
     2366    093D         3A41                  XORLW 0x41                    
     2367    093E         1903                  BTFSC STATUS, 0x2             
     2368    093F         28D6                  GOTO 0xD6                     
     2369    0940         3AC2                  XORLW 0xC2                    
     2370    0941         1903                  BTFSC STATUS, 0x2             
     2371    0942         2947                  GOTO 0x147                    
     2372    0943         3A41                  XORLW 0x41                    
     2373    0944         1903                  BTFSC STATUS, 0x2             
     2374    0945         2947                  GOTO 0x147                    
     2375    0946         28EE                  GOTO 0xEE                     
     2376    0947         0008                  RETURN                        
     2377    0948         00F5                  MOVWF 0x75                    
     2378    0949         0874                  MOVF 0x74, W                  
     2379    094A         0020                  MOVLB 0x0                     
     2380    094B         00C6                  MOVWF 0x46                    
     2381    094C         0021                  MOVLB 0x1                     
     2382    094D         00CE                  MOVWF 0xCE                    
     2383    094E         0875                  MOVF 0xF5, W                  
     2384    094F         00CF                  MOVWF 0xCF                    
     2385    0950         3003                  MOVLW 0x3                     
     2386    0951         0020                  MOVLB 0x0                     
     2387    0952         00CD                  MOVWF 0x4D                    
     2388    0953         0008                  RETURN                        
     2389    0954         00FB                  MOVWF 0x7B                    
     2390    0955         0021                  MOVLB 0x1                     
     2391    0956         3005                  MOVLW 0x5                     
     2392    0957         01AB                  CLRF 0xAB                     
     2393    0958         0020                  MOVLB 0x0                     
     2394    0959         00CD                  MOVWF 0x4D                    
     2395    095A         0868                  MOVF 0x68, W                  
     2396    095B         0021                  MOVLB 0x1                     
     2397    095C         00A8                  MOVWF 0xA8                    
     2398    095D         0020                  MOVLB 0x0                     
     2399    095E         0868                  MOVF 0x68, W                  
     2400    095F         00C6                  MOVWF 0x46                    
     2401    0960         087B                  MOVF 0x7B, W                  
     2402    0961         0021                  MOVLB 0x1                     
     2403    0962         00CF                  MOVWF 0xCF                    
     2404    0963         0020                  MOVLB 0x0                     
     2405    0964         0867                  MOVF 0x67, W                  
     2406    0965         00F7                  MOVWF 0x77                    
     2407    0966         0866                  MOVF 0x66, W                  
     2408    0967         00F6                  MOVWF 0x76                    
     2409    0968         0868                  MOVF 0x68, W                  
     2410    0969         00F8                  MOVWF 0x78                    
     2411    096A         2193                  CALL 0x193                    
     2412    096B         3188                  MOVLP 0x8                     
     2413    096C         0020                  MOVLB 0x0                     
     2414    096D         0846                  MOVF 0x46, W                  
     2415    096E         0021                  MOVLB 0x1                     
     2416    096F         00CE                  MOVWF 0xCE                    
     2417    0970         30E3                  MOVLW 0xE3                    
     2418    0971         2972                  GOTO 0x172                    
     2419    0972         00F4                  MOVWF 0xF4                    
     2420    0973         3005                  MOVLW 0x5                     
     2421    0974         0020                  MOVLB 0x0                     
     2422    0975         00CD                  MOVWF 0x4D                    
     2423    0976         0874                  MOVF 0x74, W                  
     2424    0977         0086                  MOVWF FSR1                    
     2425    0978         3001                  MOVLW 0x1                     
     2426    0979         0087                  MOVWF FSR1H                   
     2427    097A         0801                  MOVF INDF1, W                 
     2428    097B         0021                  MOVLB 0x1                     
     2429    097C         00AA                  MOVWF 0xAA                    
     2430    097D         0023                  MOVLB 0x3                     
     2431    097E         1E9E                  BTFSS TXSTA, 0x5              
     2432    097F         169E                  BSF TXSTA, 0x5                
     2433    0980         0874                  MOVF 0x1F4, W                 
     2434    0981         0086                  MOVWF 0x186                   
     2435    0982         0801                  MOVF 0x181, W                 
     2436    0983         009A                  MOVWF TXREG                   
     2437    0984         0A74                  INCF 0x1F4, W                 
     2438    0985         0021                  MOVLB 0x1                     
     2439    0986         00A9                  MOVWF 0xA9                    
     2440    0987         03A8                  DECF 0xA8, F                  
     2441    0988         0847                  MOVF 0xC7, W                  
     2442    0989         39FC                  ANDLW 0xFC                    
     2443    098A         3801                  IORLW 0x1                     
     2444    098B         00C7                  MOVWF 0xC7                    
     2445    098C         08A8                  MOVF 0xA8, F                  
     2446    098D         1D03                  BTFSS 0x83, 0x2               
     2447    098E         0008                  RETURN                        
     2448    098F         39FC                  ANDLW 0xFC                    
     2449    0990         3802                  IORLW 0x2                     
     2450    0991         00C7                  MOVWF 0xC7                    
     2451    0992         0008                  RETURN                        
     2452    0993         01E2                  CLRF 0xE2                     
     2453    0994         01E3                  CLRF 0xE3                     
     2454    0995         01E1                  CLRF 0xE1                     
     2455    0996         0021                  MOVLB 0x1                     
     2456    0997         084F                  MOVF 0xCF, W                  
     2457    0998         3A14                  XORLW 0x14                    
     2458    0999         1D03                  BTFSS 0x83, 0x2               
     2459    099A         29A0                  GOTO 0x1A0                    
     2460    099B         0023                  MOVLB 0x3                     
     2461    099C         0862                  MOVF 0x1E2, W                 
     2462    099D         0020                  MOVLB 0x0                     
     2463    099E         00E2                  MOVWF 0x62                    
     2464    099F         01E3                  CLRF 0x63                     
     2465    09A0         01F4                  CLRF 0x74                     
     2466    09A1         01F5                  CLRF 0x75                     
     2467    09A2         0875                  MOVF 0x75, W                  
     2468    09A3         0021                  MOVLB 0x1                     
     2469    09A4         00B4                  MOVWF 0xB4                    
     2470    09A5         0874                  MOVF 0xF4, W                  
     2471    09A6         00B3                  MOVWF 0xB3                    
     2472    09A7         0020                  MOVLB 0x0                     
     2473    09A8         01E4                  CLRF 0x64                     
     2474    09A9         01E5                  CLRF 0x65                     
     2475    09AA         0878                  MOVF 0x78, W                  
     2476    09AB         00F9                  MOVWF 0x79                    
     2477    09AC         01FA                  CLRF 0x7A                     
     2478    09AD         087A                  MOVF 0x7A, W                  
     2479    09AE         0265                  SUBWF 0x65, W                 
     2480    09AF         1D03                  BTFSS STATUS, 0x2             
     2481    09B0         29B3                  GOTO 0x1B3                    
     2482    09B1         0879                  MOVF 0x79, W                  
     2483    09B2         0264                  SUBWF 0x64, W                 
     2484    09B3         1803                  BTFSC STATUS, 0x0             
     2485    09B4         29D6                  GOTO 0x1D6                    
     2486    09B5         0864                  MOVF 0x64, W                  
     2487    09B6         3EE3                  ADDLW 0xE3                    
     2488    09B7         0086                  MOVWF FSR1                    
     2489    09B8         3001                  MOVLW 0x1                     
     2490    09B9         0087                  MOVWF FSR1H                   
     2491    09BA         0864                  MOVF 0x64, W                  
     2492    09BB         0776                  ADDWF 0x76, W                 
     2493    09BC         0084                  MOVWF FSR0                    
     2494    09BD         0865                  MOVF 0x65, W                  
     2495    09BE         3D77                  ADDWFC 0x77, W                
     2496    09BF         0085                  MOVWF FSR0H                   
     2497    09C0         0800                  MOVF INDF0, W                 
     2498    09C1         0081                  MOVWF INDF1                   
     2499    09C2         0864                  MOVF 0x64, W                  
     2500    09C3         0776                  ADDWF 0x76, W                 
     2501    09C4         0086                  MOVWF FSR1                    
     2502    09C5         0865                  MOVF 0x65, W                  
     2503    09C6         3D77                  ADDWFC 0x77, W                
     2504    09C7         0087                  MOVWF FSR1H                   
     2505    09C8         0801                  MOVF INDF1, W                 
     2506    09C9         07E2                  ADDWF 0x62, F                 
     2507    09CA         1803                  BTFSC STATUS, 0x0             
     2508    09CB         0AE3                  INCF 0x63, F                  
     2509    09CC         0863                  MOVF 0x63, W                  
     2510    09CD         00E1                  MOVWF 0x61                    
     2511    09CE         07E2                  ADDWF 0x62, F                 
     2512    09CF         1803                  BTFSC STATUS, 0x0             
     2513    09D0         0AE3                  INCF 0x63, F                  
     2514    09D1         01E3                  CLRF 0x63                     
     2515    09D2         0AE4                  INCF 0x64, F                  
     2516    09D3         1903                  BTFSC STATUS, 0x2             
     2517    09D4         0AE5                  INCF 0x65, F                  
     2518    09D5         29AA                  GOTO 0x1AA                    
     2519    09D6         21DC                  CALL 0x1DC                    
     2520    09D7         0020                  MOVLB 0x0                     
     2521    09D8         0962                  COMF 0x62, W                  
     2522    09D9         0021                  MOVLB 0x1                     
     2523    09DA         00AC                  MOVWF 0xAC                    
     2524    09DB         0008                  RETURN                        
     2525    09DC         0021                  MOVLB 0x1                     
     2526    09DD         0834                  MOVF 0xB4, W                  
     2527    09DE         00F5                  MOVWF 0xF5                    
     2528    09DF         0833                  MOVF 0xB3, W                  
     2529    09E0         00F4                  MOVWF 0xF4                    
     2530    09E1         0008                  RETURN                        
     2531    09E2         0021                  MOVLB 0x1                     
     2532    09E3         0854                  MOVF 0xD4, W                  
     2533    09E4         3A27                  XORLW 0x27                    
     2534    09E5         1903                  BTFSC 0x83, 0x2               
     2535    09E6         29EB                  GOTO 0x1EB                    
     2536    09E7         3A16                  XORLW 0x16                    
     2537    09E8         1903                  BTFSC 0x83, 0x2               
     2538    09E9         29EF                  GOTO 0x1EF                    
     2539    09EA         2A4B                  GOTO 0x24B                    
     2540    09EB         2702                  CALL 0x702                    
     2541    09EC         0021                  MOVLB 0x1                     
     2542    09ED         00DC                  MOVWF 0xDC                    
     2543    09EE         0008                  RETURN                        
     2544    09EF         2702                  CALL 0x702                    
     2545    09F0         3040                  MOVLW 0x40                    
     2546    09F1         3183                  MOVLP 0x3                     
     2547    09F2         2368                  CALL 0x368                    
     2548    09F3         3189                  MOVLP 0x9                     
     2549    09F4         0020                  MOVLB 0x0                     
     2550    09F5         00D8                  MOVWF 0x58                    
     2551    09F6         0859                  MOVF 0x59, W                  
     2552    09F7         0021                  MOVLB 0x1                     
     2553    09F8         065C                  XORWF 0xDC, W                 
     2554    09F9         1D03                  BTFSS 0x83, 0x2               
     2555    09FA         2A12                  GOTO 0x212                    
     2556    09FB         0020                  MOVLB 0x0                     
     2557    09FC         0859                  MOVF 0x59, W                  
     2558    09FD         3AFF                  XORLW 0xFF                    
     2559    09FE         1903                  BTFSC STATUS, 0x2             
     2560    09FF         2A12                  GOTO 0x212                    
     2561    0A00         2360                  CALL 0x360                    
     2562    0A01         3189                  MOVLP 0x9                     
     2563    0A02         0874                  MOVF 0x74, W                  
     2564    0A03         0020                  MOVLB 0x0                     
     2565    0A04         00E9                  MOVWF 0x69                    
     2566    0A05         0875                  MOVF 0x75, W                  
     2567    0A06         00EA                  MOVWF 0x6A                    
     2568    0A07         3007                  MOVLW 0x7                     
     2569    0A08         36EA                  LSRF 0x6A, F                  
     2570    0A09         0CE9                  RRF 0x69, F                   
     2571    0A0A         0B89                  DECFSZ WREG, F                
     2572    0A0B         2A08                  GOTO 0x208                    
     2573    0A0C         0869                  MOVF 0x69, W                  
     2574    0A0D         0021                  MOVLB 0x1                     
     2575    0A0E         00D7                  MOVWF 0xD7                    
     2576    0A0F         3007                  MOVLW 0x7                     
     2577    0A10         05D7                  ANDWF 0xD7, F                 
     2578    0A11         2A35                  GOTO 0x235                    
     2579    0A12         30FF                  MOVLW 0xFF                    
     2580    0A13         0020                  MOVLB 0x0                     
     2581    0A14         00D9                  MOVWF 0x59                    
     2582    0A15         0021                  MOVLB 0x1                     
     2583    0A16         1E68                  BTFSS 0xE8, 0x4               
     2584    0A17         2A35                  GOTO 0x235                    
     2585    0A18         0023                  MOVLB 0x3                     
     2586    0A19         082C                  MOVF 0x1AC, W                 
     2587    0A1A         3AFF                  XORLW 0xFF                    
     2588    0A1B         1903                  BTFSC 0x183, 0x2              
     2589    0A1C         2A31                  GOTO 0x231                    
     2590    0A1D         082C                  MOVF 0x1AC, W                 
     2591    0A1E         0020                  MOVLB 0x0                     
     2592    0A1F         00D9                  MOVWF 0x59                    
     2593    0A20         0023                  MOVLB 0x3                     
     2594    0A21         082D                  MOVF 0x1AD, W                 
     2595    0A22         0021                  MOVLB 0x1                     
     2596    0A23         00D7                  MOVWF 0xD7                    
     2597    0A24         3007                  MOVLW 0x7                     
     2598    0A25         05D7                  ANDWF 0xD7, F                 
     2599    0A26         0023                  MOVLB 0x3                     
     2600    0A27         082D                  MOVF 0x1AD, W                 
     2601    0A28         0020                  MOVLB 0x0                     
     2602    0A29         00E9                  MOVWF 0x69                    
     2603    0A2A         36E9                  LSRF 0x69, F                  
     2604    0A2B         36E9                  LSRF 0x69, F                  
     2605    0A2C         36E9                  LSRF 0x69, F                  
     2606    0A2D         0869                  MOVF 0x69, W                  
     2607    0A2E         00D8                  MOVWF 0x58                    
     2608    0A2F         301F                  MOVLW 0x1F                    
     2609    0A30         05D8                  ANDWF 0x58, F                 
     2610    0A31         0021                  MOVLB 0x1                     
     2611    0A32         1268                  BCF 0xE8, 0x4                 
     2612    0A33         11E8                  BCF 0xE8, 0x3                 
     2613    0A34         1168                  BCF 0xE8, 0x2                 
     2614    0A35         2336                  CALL 0x336                    
     2615    0A36         3189                  MOVLP 0x9                     
     2616    0A37         2A41                  GOTO 0x241                    
     2617    0A38         224C                  CALL 0x24C                    
     2618    0A39         3189                  MOVLP 0x9                     
     2619    0A3A         2A4A                  GOTO 0x24A                    
     2620    0A3B         300F                  MOVLW 0xF                     
     2621    0A3C         0020                  MOVLB 0x0                     
     2622    0A3D         00D8                  MOVWF 0x58                    
     2623    0A3E         22C4                  CALL 0x2C4                    
     2624    0A3F         3189                  MOVLP 0x9                     
     2625    0A40         2A4A                  GOTO 0x24A                    
     2626    0A41         0021                  MOVLB 0x1                     
     2627    0A42         0857                  MOVF 0xD7, W                  
     2628    0A43         3A00                  XORLW 0x0                     
     2629    0A44         1903                  BTFSC 0x83, 0x2               
     2630    0A45         2A3B                  GOTO 0x23B                    
     2631    0A46         3A07                  XORLW 0x7                     
     2632    0A47         1903                  BTFSC 0x83, 0x2               
     2633    0A48         2A38                  GOTO 0x238                    
     2634    0A49         2A4A                  GOTO 0x24A                    
     2635    0A4A         2B69                  GOTO 0x369                    
     2636    0A4B         0008                  RETURN                        
     2637    0A4C         2ABA                  GOTO 0x2BA                    
     2638    0A4D         278B                  CALL 0x78B                    
     2639    0A4E         3038                  MOVLW 0x38                    
     2640    0A4F         00DB                  MOVWF 0xDB                    
     2641    0A50         0008                  RETURN                        
     2642    0A51         278B                  CALL 0x78B                    
     2643    0A52         3030                  MOVLW 0x30                    
     2644    0A53         00DB                  MOVWF 0xDB                    
     2645    0A54         0008                  RETURN                        
     2646    0A55         278B                  CALL 0x78B                    
     2647    0A56         3008                  MOVLW 0x8                     
     2648    0A57         00DB                  MOVWF 0xDB                    
     2649    0A58         0008                  RETURN                        
     2650    0A59         278B                  CALL 0x78B                    
     2651    0A5A         3010                  MOVLW 0x10                    
     2652    0A5B         00DB                  MOVWF 0xDB                    
     2653    0A5C         0008                  RETURN                        
     2654    0A5D         278B                  CALL 0x78B                    
     2655    0A5E         3018                  MOVLW 0x18                    
     2656    0A5F         00DB                  MOVWF 0xDB                    
     2657    0A60         0008                  RETURN                        
     2658    0A61         278B                  CALL 0x78B                    
     2659    0A62         3020                  MOVLW 0x20                    
     2660    0A63         00DB                  MOVWF 0xDB                    
     2661    0A64         0008                  RETURN                        
     2662    0A65         278B                  CALL 0x78B                    
     2663    0A66         3028                  MOVLW 0x28                    
     2664    0A67         00DB                  MOVWF 0xDB                    
     2665    0A68         0008                  RETURN                        
     2666    0A69         01DB                  CLRF 0xDB                     
     2667    0A6A         0008                  RETURN                        
     2668    0A6B         0859                  MOVF 0xD9, W                  
     2669    0A6C         3A7F                  XORLW 0x7F                    
     2670    0A6D         1903                  BTFSC 0x83, 0x2               
     2671    0A6E         2A65                  GOTO 0x265                    
     2672    0A6F         3AC0                  XORLW 0xC0                    
     2673    0A70         1903                  BTFSC 0x83, 0x2               
     2674    0A71         2A61                  GOTO 0x261                    
     2675    0A72         3A60                  XORLW 0x60                    
     2676    0A73         1903                  BTFSC 0x83, 0x2               
     2677    0A74         2A5D                  GOTO 0x25D                    
     2678    0A75         3A28                  XORLW 0x28                    
     2679    0A76         1903                  BTFSC 0x83, 0x2               
     2680    0A77         2A59                  GOTO 0x259                    
     2681    0A78         3A0C                  XORLW 0xC                     
     2682    0A79         1903                  BTFSC 0x83, 0x2               
     2683    0A7A         2A55                  GOTO 0x255                    
     2684    0A7B         3A06                  XORLW 0x6                     
     2685    0A7C         1903                  BTFSC 0x83, 0x2               
     2686    0A7D         2A51                  GOTO 0x251                    
     2687    0A7E         3A03                  XORLW 0x3                     
     2688    0A7F         1903                  BTFSC 0x83, 0x2               
     2689    0A80         2A4D                  GOTO 0x24D                    
     2690    0A81         2A69                  GOTO 0x269                    
     2691    0A82         01BE                  CLRF 0xBE                     
     2692    0A83         0ABE                  INCF 0xBE, F                  
     2693    0A84         0008                  RETURN                        
     2694    0A85         3002                  MOVLW 0x2                     
     2695    0A86         00BE                  MOVWF 0xBE                    
     2696    0A87         0008                  RETURN                        
     2697    0A88         3005                  MOVLW 0x5                     
     2698    0A89         00BE                  MOVWF 0xBE                    
     2699    0A8A         0008                  RETURN                        
     2700    0A8B         3004                  MOVLW 0x4                     
     2701    0A8C         00BE                  MOVWF 0xBE                    
     2702    0A8D         0008                  RETURN                        
     2703    0A8E         3003                  MOVLW 0x3                     
     2704    0A8F         00BE                  MOVWF 0xBE                    
     2705    0A90         0008                  RETURN                        
     2706    0A91         01BE                  CLRF 0xBE                     
     2707    0A92         0008                  RETURN                        
     2708    0A93         0859                  MOVF 0xD9, W                  
     2709    0A94         3A7F                  XORLW 0x7F                    
     2710    0A95         1903                  BTFSC 0x83, 0x2               
     2711    0A96         2A8B                  GOTO 0x28B                    
     2712    0A97         3AC0                  XORLW 0xC0                    
     2713    0A98         1903                  BTFSC 0x83, 0x2               
     2714    0A99         2A8B                  GOTO 0x28B                    
     2715    0A9A         3A60                  XORLW 0x60                    
     2716    0A9B         1903                  BTFSC 0x83, 0x2               
     2717    0A9C         2A8B                  GOTO 0x28B                    
     2718    0A9D         3A30                  XORLW 0x30                    
     2719    0A9E         1903                  BTFSC 0x83, 0x2               
     2720    0A9F         2A88                  GOTO 0x288                    
     2721    0AA0         3A18                  XORLW 0x18                    
     2722    0AA1         1903                  BTFSC 0x83, 0x2               
     2723    0AA2         2A8B                  GOTO 0x28B                    
     2724    0AA3         3A0C                  XORLW 0xC                     
     2725    0AA4         1903                  BTFSC 0x83, 0x2               
     2726    0AA5         2A8B                  GOTO 0x28B                    
     2727    0AA6         3A07                  XORLW 0x7                     
     2728    0AA7         1903                  BTFSC 0x83, 0x2               
     2729    0AA8         2A8E                  GOTO 0x28E                    
     2730    0AA9         3A01                  XORLW 0x1                     
     2731    0AAA         1903                  BTFSC 0x83, 0x2               
     2732    0AAB         2A85                  GOTO 0x285                    
     2733    0AAC         3A03                  XORLW 0x3                     
     2734    0AAD         1903                  BTFSC 0x83, 0x2               
     2735    0AAE         2A82                  GOTO 0x282                    
     2736    0AAF         2A91                  GOTO 0x291                    
     2737    0AB0         1CF0                  BTFSS 0xF0, 0x1               
     2738    0AB1         2A91                  GOTO 0x291                    
     2739    0AB2         300F                  MOVLW 0xF                     
     2740    0AB3         0021                  MOVLB 0x1                     
     2741    0AB4         00D5                  MOVWF 0xD5                    
     2742    0AB5         0020                  MOVLB 0x0                     
     2743    0AB6         0858                  MOVF 0x58, W                  
     2744    0AB7         00DE                  MOVWF 0x5E                    
     2745    0AB8         01DB                  CLRF 0x5B                     
     2746    0AB9         2A91                  GOTO 0x291                    
     2747    0ABA         0020                  MOVLB 0x0                     
     2748    0ABB         083D                  MOVF 0x3D, W                  
     2749    0ABC         3A01                  XORLW 0x1                     
     2750    0ABD         1903                  BTFSC STATUS, 0x2             
     2751    0ABE         2A6B                  GOTO 0x26B                    
     2752    0ABF         3A03                  XORLW 0x3                     
     2753    0AC0         1903                  BTFSC STATUS, 0x2             
     2754    0AC1         2A93                  GOTO 0x293                    
     2755    0AC2         2AB0                  GOTO 0x2B0                    
     2756    0AC3         0008                  RETURN                        
     2757    0AC4         2B2D                  GOTO 0x32D                    
     2758    0AC5         300F                  MOVLW 0xF                     
     2759    0AC6         0021                  MOVLB 0x1                     
     2760    0AC7         00D5                  MOVWF 0xD5                    
     2761    0AC8         0020                  MOVLB 0x0                     
     2762    0AC9         00DE                  MOVWF 0x5E                    
     2763    0ACA         3008                  MOVLW 0x8                     
     2764    0ACB         00DB                  MOVWF 0x5B                    
     2765    0ACC         0008                  RETURN                        
     2766    0ACD         3007                  MOVLW 0x7                     
     2767    0ACE         2FD5                  GOTO 0x7D5                    
     2768    0ACF         3007                  MOVLW 0x7                     
     2769    0AD0         2FCE                  GOTO 0x7CE                    
     2770    0AD1         3002                  MOVLW 0x2                     
     2771    0AD2         2FD5                  GOTO 0x7D5                    
     2772    0AD3         3002                  MOVLW 0x2                     
     2773    0AD4         2FCE                  GOTO 0x7CE                    
     2774    0AD5         3008                  MOVLW 0x8                     
     2775    0AD6         2FD5                  GOTO 0x7D5                    
     2776    0AD7         3008                  MOVLW 0x8                     
     2777    0AD8         2FCE                  GOTO 0x7CE                    
     2778    0AD9         0859                  MOVF 0x59, W                  
     2779    0ADA         3A7F                  XORLW 0x7F                    
     2780    0ADB         1903                  BTFSC STATUS, 0x2             
     2781    0ADC         2ACF                  GOTO 0x2CF                    
     2782    0ADD         3AC0                  XORLW 0xC0                    
     2783    0ADE         1903                  BTFSC STATUS, 0x2             
     2784    0ADF         2ACD                  GOTO 0x2CD                    
     2785    0AE0         3A60                  XORLW 0x60                    
     2786    0AE1         1903                  BTFSC STATUS, 0x2             
     2787    0AE2         2AD7                  GOTO 0x2D7                    
     2788    0AE3         3A30                  XORLW 0x30                    
     2789    0AE4         1903                  BTFSC STATUS, 0x2             
     2790    0AE5         2AD5                  GOTO 0x2D5                    
     2791    0AE6         3A18                  XORLW 0x18                    
     2792    0AE7         1903                  BTFSC STATUS, 0x2             
     2793    0AE8         2AD3                  GOTO 0x2D3                    
     2794    0AE9         3A0C                  XORLW 0xC                     
     2795    0AEA         1903                  BTFSC STATUS, 0x2             
     2796    0AEB         2AD1                  GOTO 0x2D1                    
     2797    0AEC         3A06                  XORLW 0x6                     
     2798    0AED         1903                  BTFSC STATUS, 0x2             
     2799    0AEE         2AC5                  GOTO 0x2C5                    
     2800    0AEF         2B35                  GOTO 0x335                    
     2801    0AF0         3005                  MOVLW 0x5                     
     2802    0AF1         00BE                  MOVWF 0x3E                    
     2803    0AF2         0008                  RETURN                        
     2804    0AF3         3004                  MOVLW 0x4                     
     2805    0AF4         00BE                  MOVWF 0x3E                    
     2806    0AF5         0008                  RETURN                        
     2807    0AF6         01BE                  CLRF 0x3E                     
     2808    0AF7         0ABE                  INCF 0x3E, F                  
     2809    0AF8         0008                  RETURN                        
     2810    0AF9         3002                  MOVLW 0x2                     
     2811    0AFA         00BE                  MOVWF 0x3E                    
     2812    0AFB         0008                  RETURN                        
     2813    0AFC         3003                  MOVLW 0x3                     
     2814    0AFD         00BE                  MOVWF 0x3E                    
     2815    0AFE         0008                  RETURN                        
     2816    0AFF         01BE                  CLRF 0x3E                     
     2817    0B00         0008                  RETURN                        
     2818    0B01         0859                  MOVF 0x59, W                  
     2819    0B02         3A3F                  XORLW 0x3F                    
     2820    0B03         1903                  BTFSC STATUS, 0x2             
     2821    0B04         2AFC                  GOTO 0x2FC                    
     2822    0B05         3A40                  XORLW 0x40                    
     2823    0B06         1903                  BTFSC STATUS, 0x2             
     2824    0B07         2AF9                  GOTO 0x2F9                    
     2825    0B08         3AC0                  XORLW 0xC0                    
     2826    0B09         1903                  BTFSC STATUS, 0x2             
     2827    0B0A         2AF6                  GOTO 0x2F6                    
     2828    0B0B         3A70                  XORLW 0x70                    
     2829    0B0C         1903                  BTFSC STATUS, 0x2             
     2830    0B0D         2AFC                  GOTO 0x2FC                    
     2831    0B0E         3A10                  XORLW 0x10                    
     2832    0B0F         1903                  BTFSC STATUS, 0x2             
     2833    0B10         2AF9                  GOTO 0x2F9                    
     2834    0B11         3A30                  XORLW 0x30                    
     2835    0B12         1903                  BTFSC STATUS, 0x2             
     2836    0B13         2AF6                  GOTO 0x2F6                    
     2837    0B14         3A1C                  XORLW 0x1C                    
     2838    0B15         1903                  BTFSC STATUS, 0x2             
     2839    0B16         2AFC                  GOTO 0x2FC                    
     2840    0B17         3A04                  XORLW 0x4                     
     2841    0B18         1903                  BTFSC STATUS, 0x2             
     2842    0B19         2AF9                  GOTO 0x2F9                    
     2843    0B1A         3A0C                  XORLW 0xC                     
     2844    0B1B         1903                  BTFSC STATUS, 0x2             
     2845    0B1C         2AF6                  GOTO 0x2F6                    
     2846    0B1D         3A06                  XORLW 0x6                     
     2847    0B1E         1903                  BTFSC STATUS, 0x2             
     2848    0B1F         2AF3                  GOTO 0x2F3                    
     2849    0B20         3A03                  XORLW 0x3                     
     2850    0B21         1903                  BTFSC STATUS, 0x2             
     2851    0B22         2AF0                  GOTO 0x2F0                    
     2852    0B23         2AFF                  GOTO 0x2FF                    
     2853    0B24         1CF0                  BTFSS 0x70, 0x1               
     2854    0B25         2AFF                  GOTO 0x2FF                    
     2855    0B26         300F                  MOVLW 0xF                     
     2856    0B27         0021                  MOVLB 0x1                     
     2857    0B28         00D5                  MOVWF 0xD5                    
     2858    0B29         0020                  MOVLB 0x0                     
     2859    0B2A         00DE                  MOVWF 0x5E                    
     2860    0B2B         01DB                  CLRF 0x5B                     
     2861    0B2C         2AFF                  GOTO 0x2FF                    
     2862    0B2D         083D                  MOVF 0x3D, W                  
     2863    0B2E         3A01                  XORLW 0x1                     
     2864    0B2F         1903                  BTFSC STATUS, 0x2             
     2865    0B30         2AD9                  GOTO 0x2D9                    
     2866    0B31         3A03                  XORLW 0x3                     
     2867    0B32         1903                  BTFSC STATUS, 0x2             
     2868    0B33         2B01                  GOTO 0x301                    
     2869    0B34         2B24                  GOTO 0x324                    
     2870    0B35         0008                  RETURN                        
     2871    0B36         2B53                  GOTO 0x353                    
     2872    0B37         0859                  MOVF 0x59, W                  
     2873    0B38         0021                  MOVLB 0x1                     
     2874    0B39         0658                  XORWF 0xD8, W                 
     2875    0B3A         1D03                  BTFSS 0x83, 0x2               
     2876    0B3B         2B40                  GOTO 0x340                    
     2877    0B3C         3002                  MOVLW 0x2                     
     2878    0B3D         0020                  MOVLB 0x0                     
     2879    0B3E         00BD                  MOVWF 0x3D                    
     2880    0B3F         0008                  RETURN                        
     2881    0B40         0020                  MOVLB 0x0                     
     2882    0B41         01BD                  CLRF 0x3D                     
     2883    0B42         0008                  RETURN                        
     2884    0B43         0859                  MOVF 0x59, W                  
     2885    0B44         0021                  MOVLB 0x1                     
     2886    0B45         0658                  XORWF 0xD8, W                 
     2887    0B46         1903                  BTFSC 0x83, 0x2               
     2888    0B47         0008                  RETURN                        
     2889    0B48         2B40                  GOTO 0x340                    
     2890    0B49         0859                  MOVF 0xD9, W                  
     2891    0B4A         3AFF                  XORLW 0xFF                    
     2892    0B4B         1903                  BTFSC 0x83, 0x2               
     2893    0B4C         0008                  RETURN                        
     2894    0B4D         01BD                  CLRF 0xBD                     
     2895    0B4E         0ABD                  INCF 0xBD, F                  
     2896    0B4F         0859                  MOVF 0xD9, W                  
     2897    0B50         0021                  MOVLB 0x1                     
     2898    0B51         00D8                  MOVWF 0xD8                    
     2899    0B52         0008                  RETURN                        
     2900    0B53         0020                  MOVLB 0x0                     
     2901    0B54         083D                  MOVF 0x3D, W                  
     2902    0B55         3A00                  XORLW 0x0                     
     2903    0B56         1903                  BTFSC STATUS, 0x2             
     2904    0B57         2B49                  GOTO 0x349                    
     2905    0B58         3A01                  XORLW 0x1                     
     2906    0B59         1903                  BTFSC STATUS, 0x2             
     2907    0B5A         2B37                  GOTO 0x337                    
     2908    0B5B         3A03                  XORLW 0x3                     
     2909    0B5C         1903                  BTFSC STATUS, 0x2             
     2910    0B5D         2B43                  GOTO 0x343                    
     2911    0B5E         2B40                  GOTO 0x340                    
     2912    0B5F         0008                  RETURN                        
     2913    0B60         0021                  MOVLB 0x1                     
     2914    0B61         149D                  BSF ADCON0, 0x1               
     2915    0B62         189D                  BTFSC ADCON0, 0x1             
     2916    0B63         2B62                  GOTO 0x362                    
     2917    0B64         081C                  MOVF ADRESH, W                
     2918    0B65         00F5                  MOVWF 0xF5                    
     2919    0B66         081B                  MOVF ADRES, W                 
     2920    0B67         00F4                  MOVWF 0xF4                    
     2921    0B68         0008                  RETURN                        
     2922    0B69         2EDD                  GOTO 0x6DD                    
     2923    0B6A         01BF                  CLRF 0xBF                     
     2924    0B6B         0ABF                  INCF 0xBF, F                  
     2925    0B6C         01CE                  CLRF 0xCE                     
     2926    0B6D         0ACE                  INCF 0xCE, F                  
     2927    0B6E         1CF0                  BTFSS 0xF0, 0x1               
     2928    0B6F         0008                  RETURN                        
     2929    0B70         0021                  MOVLB 0x1                     
     2930    0B71         01D5                  CLRF 0xD5                     
     2931    0B72         0020                  MOVLB 0x0                     
     2932    0B73         01B1                  CLRF 0x31                     
     2933    0B74         01B2                  CLRF 0x32                     
     2934    0B75         01DF                  CLRF 0x5F                     
     2935    0B76         3004                  MOVLW 0x4                     
     2936    0B77         025F                  SUBWF 0x5F, W                 
     2937    0B78         1803                  BTFSC STATUS, 0x0             
     2938    0B79         2BAD                  GOTO 0x3AD                    
     2939    0B7A         355F                  LSLF 0x5F, W                  
     2940    0B7B         27C8                  CALL 0x7C8                    
     2941    0B7C         3189                  MOVLP 0x9                     
     2942    0B7D         1903                  BTFSC STATUS, 0x2             
     2943    0B7E         2BAA                  GOTO 0x3AA                    
     2944    0B7F         3001                  MOVLW 0x1                     
     2945    0B80         00E3                  MOVWF 0x63                    
     2946    0B81         0A5F                  INCF 0x5F, W                  
     2947    0B82         2B84                  GOTO 0x384                    
     2948    0B83         35E3                  LSLF 0x63, F                  
     2949    0B84         0B89                  DECFSZ WREG, F                
     2950    0B85         2B83                  GOTO 0x383                    
     2951    0B86         0863                  MOVF 0x63, W                  
     2952    0B87         055E                  ANDWF 0x5E, W                 
     2953    0B88         1903                  BTFSC STATUS, 0x2             
     2954    0B89         2BAA                  GOTO 0x3AA                    
     2955    0B8A         355F                  LSLF 0x5F, W                  
     2956    0B8B         3E21                  ADDLW 0x21                    
     2957    0B8C         2759                  CALL 0x759                    
     2958    0B8D         3189                  MOVLP 0x9                     
     2959    0B8E         27AA                  CALL 0x7AA                    
     2960    0B8F         3189                  MOVLP 0x9                     
     2961    0B90         2760                  CALL 0x760                    
     2962    0B91         3189                  MOVLP 0x9                     
     2963    0B92         1803                  BTFSC STATUS, 0x0             
     2964    0B93         2BAA                  GOTO 0x3AA                    
     2965    0B94         355F                  LSLF 0x5F, W                  
     2966    0B95         3E38                  ADDLW 0x38                    
     2967    0B96         2792                  CALL 0x792                    
     2968    0B97         3189                  MOVLP 0x9                     
     2969    0B98         0232                  SUBWF 0x32, W                 
     2970    0B99         1D03                  BTFSS STATUS, 0x2             
     2971    0B9A         2B9D                  GOTO 0x39D                    
     2972    0B9B         0863                  MOVF 0x63, W                  
     2973    0B9C         0231                  SUBWF 0x31, W                 
     2974    0B9D         1803                  BTFSC STATUS, 0x0             
     2975    0B9E         2BAA                  GOTO 0x3AA                    
     2976    0B9F         355F                  LSLF 0x5F, W                  
     2977    0BA0         3E38                  ADDLW 0x38                    
     2978    0BA1         0086                  MOVWF FSR1                    
     2979    0BA2         3001                  MOVLW 0x1                     
     2980    0BA3         0087                  MOVWF FSR1H                   
     2981    0BA4         27C3                  CALL 0x7C3                    
     2982    0BA5         3189                  MOVLP 0x9                     
     2983    0BA6         27BA                  CALL 0x7BA                    
     2984    0BA7         3189                  MOVLP 0x9                     
     2985    0BA8         1803                  BTFSC STATUS, 0x0             
     2986    0BA9         0ABE                  INCF 0x3E, F                  
     2987    0BAA         0020                  MOVLB 0x0                     
     2988    0BAB         0ADF                  INCF 0x5F, F                  
     2989    0BAC         2B76                  GOTO 0x376                    
     2990    0BAD         3004                  MOVLW 0x4                     
     2991    0BAE         01DF                  CLRF 0x5F                     
     2992    0BAF         025F                  SUBWF 0x5F, W                 
     2993    0BB0         1803                  BTFSC STATUS, 0x0             
     2994    0BB1         0008                  RETURN                        
     2995    0BB2         355F                  LSLF 0x5F, W                  
     2996    0BB3         27C8                  CALL 0x7C8                    
     2997    0BB4         3189                  MOVLP 0x9                     
     2998    0BB5         1903                  BTFSC STATUS, 0x2             
     2999    0BB6         2BE5                  GOTO 0x3E5                    
     3000    0BB7         3001                  MOVLW 0x1                     
     3001    0BB8         00E3                  MOVWF 0x63                    
     3002    0BB9         0A5F                  INCF 0x5F, W                  
     3003    0BBA         2BBC                  GOTO 0x3BC                    
     3004    0BBB         35E3                  LSLF 0x63, F                  
     3005    0BBC         0B89                  DECFSZ WREG, F                
     3006    0BBD         2BBB                  GOTO 0x3BB                    
     3007    0BBE         0863                  MOVF 0x63, W                  
     3008    0BBF         055E                  ANDWF 0x5E, W                 
     3009    0BC0         1903                  BTFSC STATUS, 0x2             
     3010    0BC1         2BE5                  GOTO 0x3E5                    
     3011    0BC2         355F                  LSLF 0x5F, W                  
     3012    0BC3         3E21                  ADDLW 0x21                    
     3013    0BC4         2759                  CALL 0x759                    
     3014    0BC5         3189                  MOVLP 0x9                     
     3015    0BC6         0021                  MOVLB 0x1                     
     3016    0BC7         023E                  SUBWF 0xBE, W                 
     3017    0BC8         1D03                  BTFSS 0x83, 0x2               
     3018    0BC9         2BCE                  GOTO 0x3CE                    
     3019    0BCA         0020                  MOVLB 0x0                     
     3020    0BCB         0863                  MOVF 0x63, W                  
     3021    0BCC         0021                  MOVLB 0x1                     
     3022    0BCD         023D                  SUBWF 0xBD, W                 
     3023    0BCE         1803                  BTFSC 0x83, 0x0               
     3024    0BCF         2BE5                  GOTO 0x3E5                    
     3025    0BD0         0020                  MOVLB 0x0                     
     3026    0BD1         355F                  LSLF 0x5F, W                  
     3027    0BD2         3E21                  ADDLW 0x21                    
     3028    0BD3         2759                  CALL 0x759                    
     3029    0BD4         3189                  MOVLP 0x9                     
     3030    0BD5         27AA                  CALL 0x7AA                    
     3031    0BD6         3189                  MOVLP 0x9                     
     3032    0BD7         2760                  CALL 0x760                    
     3033    0BD8         3189                  MOVLP 0x9                     
     3034    0BD9         1803                  BTFSC STATUS, 0x0             
     3035    0BDA         2BE5                  GOTO 0x3E5                    
     3036    0BDB         3001                  MOVLW 0x1                     
     3037    0BDC         00E3                  MOVWF 0x63                    
     3038    0BDD         0A5F                  INCF 0x5F, W                  
     3039    0BDE         2BE0                  GOTO 0x3E0                    
     3040    0BDF         35E3                  LSLF 0x63, F                  
     3041    0BE0         0B89                  DECFSZ WREG, F                
     3042    0BE1         2BDF                  GOTO 0x3DF                    
     3043    0BE2         0863                  MOVF 0x63, W                  
     3044    0BE3         0021                  MOVLB 0x1                     
     3045    0BE4         04D5                  IORWF 0xD5, F                 
     3046    0BE5         0020                  MOVLB 0x0                     
     3047    0BE6         3004                  MOVLW 0x4                     
     3048    0BE7         0ADF                  INCF 0x5F, F                  
     3049    0BE8         2BAF                  GOTO 0x3AF                    
     3050    0BE9         3002                  MOVLW 0x2                     
     3051    0BEA         00BF                  MOVWF 0x3F                    
     3052    0BEB         00CE                  MOVWF 0x4E                    
     3053    0BEC         1CF0                  BTFSS 0x70, 0x1               
     3054    0BED         0008                  RETURN                        
     3055    0BEE         0021                  MOVLB 0x1                     
     3056    0BEF         27F6                  CALL 0x7F6                    
     3057    0BF0         3189                  MOVLP 0x9                     
     3058    0BF1         3004                  MOVLW 0x4                     
     3059    0BF2         01DF                  CLRF 0xDF                     
     3060    0BF3         025F                  SUBWF 0xDF, W                 
     3061    0BF4         1803                  BTFSC 0x83, 0x0               
     3062    0BF5         2C26                  GOTO 0x426                    
     3063    0BF6         355F                  LSLF 0xDF, W                  
     3064    0BF7         27C8                  CALL 0x7C8                    
     3065    0BF8         3189                  MOVLP 0x9                     
     3066    0BF9         1903                  BTFSC 0x83, 0x2               
     3067    0BFA         2C22                  GOTO 0x422                    
     3068    0BFB         3001                  MOVLW 0x1                     
     3069    0BFC         00E3                  MOVWF 0xE3                    
     3070    0BFD         0A5F                  INCF 0xDF, W                  
     3071    0BFE         2C00                  GOTO 0x400                    
     3072    0BFF         35E3                  LSLF 0xE3, F                  
     3073    0C00         0B89                  DECFSZ 0x89, F                
     3074    0C01         2BFF                  GOTO 0x3FF                    
     3075    0C02         0863                  MOVF 0xE3, W                  
     3076    0C03         055E                  ANDWF 0xDE, W                 
     3077    0C04         1903                  BTFSC 0x83, 0x2               
     3078    0C05         2C22                  GOTO 0x422                    
     3079    0C06         355F                  LSLF 0xDF, W                  
     3080    0C07         279A                  CALL 0x79A                    
     3081    0C08         3189                  MOVLP 0x9                     
     3082    0C09         277C                  CALL 0x77C                    
     3083    0C0A         3189                  MOVLP 0x9                     
     3084    0C0B         2771                  CALL 0x771                    
     3085    0C0C         3189                  MOVLP 0x9                     
     3086    0C0D         1803                  BTFSC 0x83, 0x0               
     3087    0C0E         2C22                  GOTO 0x422                    
     3088    0C0F         355F                  LSLF 0xDF, W                  
     3089    0C10         3E28                  ADDLW 0x28                    
     3090    0C11         2792                  CALL 0x792                    
     3091    0C12         3189                  MOVLP 0x9                     
     3092    0C13         082E                  MOVF 0xAE, W                  
     3093    0C14         0264                  SUBWF 0xE4, W                 
     3094    0C15         1D03                  BTFSS 0x83, 0x2               
     3095    0C16         2C19                  GOTO 0x419                    
     3096    0C17         082D                  MOVF 0xAD, W                  
     3097    0C18         0263                  SUBWF 0xE3, W                 
     3098    0C19         1803                  BTFSC 0x83, 0x0               
     3099    0C1A         2C22                  GOTO 0x422                    
     3100    0C1B         355F                  LSLF 0xDF, W                  
     3101    0C1C         279A                  CALL 0x79A                    
     3102    0C1D         3189                  MOVLP 0x9                     
     3103    0C1E         27B5                  CALL 0x7B5                    
     3104    0C1F         3189                  MOVLP 0x9                     
     3105    0C20         279F                  CALL 0x79F                    
     3106    0C21         3189                  MOVLP 0x9                     
     3107    0C22         0020                  MOVLB 0x0                     
     3108    0C23         3004                  MOVLW 0x4                     
     3109    0C24         0ADF                  INCF 0x5F, F                  
     3110    0C25         2BF3                  GOTO 0x3F3                    
     3111    0C26         3004                  MOVLW 0x4                     
     3112    0C27         01DF                  CLRF 0x5F                     
     3113    0C28         025F                  SUBWF 0x5F, W                 
     3114    0C29         1803                  BTFSC STATUS, 0x0             
     3115    0C2A         0008                  RETURN                        
     3116    0C2B         355F                  LSLF 0x5F, W                  
     3117    0C2C         27C8                  CALL 0x7C8                    
     3118    0C2D         3189                  MOVLP 0x9                     
     3119    0C2E         1903                  BTFSC STATUS, 0x2             
     3120    0C2F         2C5E                  GOTO 0x45E                    
     3121    0C30         3001                  MOVLW 0x1                     
     3122    0C31         00E3                  MOVWF 0x63                    
     3123    0C32         0A5F                  INCF 0x5F, W                  
     3124    0C33         2C35                  GOTO 0x435                    
     3125    0C34         35E3                  LSLF 0x63, F                  
     3126    0C35         0B89                  DECFSZ WREG, F                
     3127    0C36         2C34                  GOTO 0x434                    
     3128    0C37         0863                  MOVF 0x63, W                  
     3129    0C38         055E                  ANDWF 0x5E, W                 
     3130    0C39         1903                  BTFSC STATUS, 0x2             
     3131    0C3A         2C5E                  GOTO 0x45E                    
     3132    0C3B         355F                  LSLF 0x5F, W                  
     3133    0C3C         3E21                  ADDLW 0x21                    
     3134    0C3D         2759                  CALL 0x759                    
     3135    0C3E         3189                  MOVLP 0x9                     
     3136    0C3F         0021                  MOVLB 0x1                     
     3137    0C40         083C                  MOVF 0xBC, W                  
     3138    0C41         0020                  MOVLB 0x0                     
     3139    0C42         0264                  SUBWF 0x64, W                 
     3140    0C43         1D03                  BTFSS STATUS, 0x2             
     3141    0C44         2C49                  GOTO 0x449                    
     3142    0C45         0021                  MOVLB 0x1                     
     3143    0C46         083B                  MOVF 0xBB, W                  
     3144    0C47         0020                  MOVLB 0x0                     
     3145    0C48         0263                  SUBWF 0x63, W                 
     3146    0C49         1803                  BTFSC STATUS, 0x0             
     3147    0C4A         2C5E                  GOTO 0x45E                    
     3148    0C4B         355F                  LSLF 0x5F, W                  
     3149    0C4C         279A                  CALL 0x79A                    
     3150    0C4D         3189                  MOVLP 0x9                     
     3151    0C4E         277C                  CALL 0x77C                    
     3152    0C4F         3189                  MOVLP 0x9                     
     3153    0C50         2771                  CALL 0x771                    
     3154    0C51         3189                  MOVLP 0x9                     
     3155    0C52         1803                  BTFSC STATUS, 0x0             
     3156    0C53         2C5E                  GOTO 0x45E                    
     3157    0C54         3001                  MOVLW 0x1                     
     3158    0C55         00E3                  MOVWF 0x63                    
     3159    0C56         0A5F                  INCF 0x5F, W                  
     3160    0C57         2C59                  GOTO 0x459                    
     3161    0C58         35E3                  LSLF 0x63, F                  
     3162    0C59         0B89                  DECFSZ WREG, F                
     3163    0C5A         2C58                  GOTO 0x458                    
     3164    0C5B         0863                  MOVF 0x63, W                  
     3165    0C5C         0021                  MOVLB 0x1                     
     3166    0C5D         04D5                  IORWF 0xD5, F                 
     3167    0C5E         0020                  MOVLB 0x0                     
     3168    0C5F         3004                  MOVLW 0x4                     
     3169    0C60         0ADF                  INCF 0x5F, F                  
     3170    0C61         2C28                  GOTO 0x428                    
     3171    0C62         3003                  MOVLW 0x3                     
     3172    0C63         2FFC                  GOTO 0x7FC                    
     3173    0C64         1CF0                  BTFSS 0x70, 0x1               
     3174    0C65         0008                  RETURN                        
     3175    0C66         08C0                  MOVF 0x40, F                  
     3176    0C67         1D03                  BTFSS STATUS, 0x2             
     3177    0C68         0008                  RETURN                        
     3178    0C69         0320                  DECF 0x20, W                  
     3179    0C6A         1903                  BTFSC STATUS, 0x2             
     3180    0C6B         0008                  RETURN                        
     3181    0C6C         3005                  MOVLW 0x5                     
     3182    0C6D         2FFC                  GOTO 0x7FC                    
     3183    0C6E         1CF0                  BTFSS 0x70, 0x1               
     3184    0C6F         0008                  RETURN                        
     3185    0C70         08C0                  MOVF 0x40, F                  
     3186    0C71         1D03                  BTFSS STATUS, 0x2             
     3187    0C72         0008                  RETURN                        
     3188    0C73         01BF                  CLRF 0x3F                     
     3189    0C74         0021                  MOVLB 0x1                     
     3190    0C75         01C5                  CLRF 0xC5                     
     3191    0C76         0AC5                  INCF 0xC5, F                  
     3192    0C77         0020                  MOVLB 0x0                     
     3193    0C78         01DF                  CLRF 0x5F                     
     3194    0C79         3004                  MOVLW 0x4                     
     3195    0C7A         025F                  SUBWF 0x5F, W                 
     3196    0C7B         1803                  BTFSC STATUS, 0x0             
     3197    0C7C         2C8E                  GOTO 0x48E                    
     3198    0C7D         085B                  MOVF 0x5B, W                  
     3199    0C7E         3181                  MOVLP 0x1                     
     3200    0C7F         2192                  CALL 0x192                    
     3201    0C80         3189                  MOVLP 0x9                     
     3202    0C81         0020                  MOVLB 0x0                     
     3203    0C82         355F                  LSLF 0x5F, W                  
     3204    0C83         3EA0                  ADDLW 0xA0                    
     3205    0C84         0086                  MOVWF FSR1                    
     3206    0C85         0187                  CLRF FSR1H                    
     3207    0C86         0875                  MOVF 0x75, W                  
     3208    0C87         3FC0                  MOVWI [0]FSR1                 
     3209    0C88         0876                  MOVF 0x76, W                  
     3210    0C89         3FC1                  MOVWI [1]FSR1                 
     3211    0C8A         0ADB                  INCF 0x5B, F                  
     3212    0C8B         0ADB                  INCF 0x5B, F                  
     3213    0C8C         0ADF                  INCF 0x5F, F                  
     3214    0C8D         2C79                  GOTO 0x479                    
     3215    0C8E         01DF                  CLRF 0x5F                     
     3216    0C8F         01BC                  CLRF 0x3C                     
     3217    0C90         0ABC                  INCF 0x3C, F                  
     3218    0C91         0008                  RETURN                        
     3219    0C92         01BF                  CLRF 0x3F                     
     3220    0C93         084E                  MOVF 0x4E, W                  
     3221    0C94         3A03                  XORLW 0x3                     
     3222    0C95         1D03                  BTFSS STATUS, 0x2             
     3223    0C96         2C9F                  GOTO 0x49F                    
     3224    0C97         3033                  MOVLW 0x33                    
     3225    0C98         0255                  SUBWF 0x55, W                 
     3226    0C99         1C03                  BTFSS STATUS, 0x0             
     3227    0C9A         2C9F                  GOTO 0x49F                    
     3228    0C9B         3004                  MOVLW 0x4                     
     3229    0C9C         0021                  MOVLB 0x1                     
     3230    0C9D         00C5                  MOVWF 0xC5                    
     3231    0C9E         2CB1                  GOTO 0x4B1                    
     3232    0C9F         084E                  MOVF 0xCE, W                  
     3233    0CA0         3A05                  XORLW 0x5                     
     3234    0CA1         1D03                  BTFSS 0x83, 0x2               
     3235    0CA2         2CB1                  GOTO 0x4B1                    
     3236    0CA3         300B                  MOVLW 0xB                     
     3237    0CA4         0255                  SUBWF 0xD5, W                 
     3238    0CA5         1C03                  BTFSS 0x83, 0x0               
     3239    0CA6         2CB1                  GOTO 0x4B1                    
     3240    0CA7         3033                  MOVLW 0x33                    
     3241    0CA8         0255                  SUBWF 0xD5, W                 
     3242    0CA9         1C03                  BTFSS 0x83, 0x0               
     3243    0CAA         2CAD                  GOTO 0x4AD                    
     3244    0CAB         3003                  MOVLW 0x3                     
     3245    0CAC         2CAE                  GOTO 0x4AE                    
     3246    0CAD         3002                  MOVLW 0x2                     
     3247    0CAE         0021                  MOVLB 0x1                     
     3248    0CAF         00C5                  MOVWF 0xC5                    
     3249    0CB0         16F1                  BSF 0xF1, 0x5                 
     3250    0CB1         0020                  MOVLB 0x0                     
     3251    0CB2         01CE                  CLRF 0x4E                     
     3252    0CB3         0020                  MOVLB 0x0                     
     3253    0CB4         01D5                  CLRF 0x55                     
     3254    0CB5         0008                  RETURN                        
     3255    0CB6         0020                  MOVLB 0x0                     
     3256    0CB7         083E                  MOVF 0x3E, W                  
     3257    0CB8         3A01                  XORLW 0x1                     
     3258    0CB9         1903                  BTFSC STATUS, 0x2             
     3259    0CBA         2B6A                  GOTO 0x36A                    
     3260    0CBB         3A03                  XORLW 0x3                     
     3261    0CBC         1903                  BTFSC STATUS, 0x2             
     3262    0CBD         2BE9                  GOTO 0x3E9                    
     3263    0CBE         3A01                  XORLW 0x1                     
     3264    0CBF         1903                  BTFSC STATUS, 0x2             
     3265    0CC0         2C62                  GOTO 0x462                    
     3266    0CC1         3A07                  XORLW 0x7                     
     3267    0CC2         1903                  BTFSC STATUS, 0x2             
     3268    0CC3         2C6E                  GOTO 0x46E                    
     3269    0CC4         3A01                  XORLW 0x1                     
     3270    0CC5         1903                  BTFSC STATUS, 0x2             
     3271    0CC6         2C64                  GOTO 0x464                    
     3272    0CC7         2C92                  GOTO 0x492                    
     3273    0CC8         0008                  RETURN                        
     3274    0CC9         01BF                  CLRF 0x3F                     
     3275    0CCA         0ABF                  INCF 0x3F, F                  
     3276    0CCB         0021                  MOVLB 0x1                     
     3277    0CCC         3001                  MOVLW 0x1                     
     3278    0CCD         01C5                  CLRF 0xC5                     
     3279    0CCE         0020                  MOVLB 0x0                     
     3280    0CCF         00A0                  MOVWF 0x20                    
     3281    0CD0         3030                  MOVLW 0x30                    
     3282    0CD1         14F1                  BSF 0x71, 0x1                 
     3283    0CD2         00DB                  MOVWF 0x5B                    
     3284    0CD3         0008                  RETURN                        
     3285    0CD4         01BF                  CLRF 0x3F                     
     3286    0CD5         0008                  RETURN                        
     3287    0CD6         01BF                  CLRF 0x3F                     
     3288    0CD7         0021                  MOVLB 0x1                     
     3289    0CD8         01C5                  CLRF 0xC5                     
     3290    0CD9         0008                  RETURN                        
     3291    0CDA         3065                  MOVLW 0x65                    
     3292    0CDB         01BF                  CLRF 0xBF                     
     3293    0CDC         0AD5                  INCF 0xD5, F                  
     3294    0CDD         0255                  SUBWF 0xD5, W                 
     3295    0CDE         1C03                  BTFSS 0x83, 0x0               
     3296    0CDF         0008                  RETURN                        
     3297    0CE0         0021                  MOVLB 0x1                     
     3298    0CE1         01C5                  CLRF 0xC5                     
     3299    0CE2         0008                  RETURN                        
     3300    0CE3         0020                  MOVLB 0x0                     
     3301    0CE4         083E                  MOVF 0x3E, W                  
     3302    0CE5         3A01                  XORLW 0x1                     
     3303    0CE6         1903                  BTFSC STATUS, 0x2             
     3304    0CE7         2CC9                  GOTO 0x4C9                    
     3305    0CE8         3A03                  XORLW 0x3                     
     3306    0CE9         1903                  BTFSC STATUS, 0x2             
     3307    0CEA         2CD6                  GOTO 0x4D6                    
     3308    0CEB         3A01                  XORLW 0x1                     
     3309    0CEC         1903                  BTFSC STATUS, 0x2             
     3310    0CED         2CD4                  GOTO 0x4D4                    
     3311    0CEE         3A07                  XORLW 0x7                     
     3312    0CEF         1903                  BTFSC STATUS, 0x2             
     3313    0CF0         2CD6                  GOTO 0x4D6                    
     3314    0CF1         3A01                  XORLW 0x1                     
     3315    0CF2         1903                  BTFSC STATUS, 0x2             
     3316    0CF3         2CD6                  GOTO 0x4D6                    
     3317    0CF4         2CDA                  GOTO 0x4DA                    
     3318    0CF5         0020                  MOVLB 0x0                     
     3319    0CF6         01BF                  CLRF 0x3F                     
     3320    0CF7         2D39                  GOTO 0x539                    
     3321    0CF8         3181                  MOVLP 0x1                     
     3322    0CF9         21A3                  CALL 0x1A3                    
     3323    0CFA         3189                  MOVLP 0x9                     
     3324    0CFB         01C5                  CLRF 0x45                     
     3325    0CFC         2CB3                  GOTO 0x4B3                    
     3326    0CFD         1EF1                  BTFSS 0x71, 0x5               
     3327    0CFE         0008                  RETURN                        
     3328    0CFF         01DF                  CLRF 0x5F                     
     3329    0D00         3004                  MOVLW 0x4                     
     3330    0D01         025F                  SUBWF 0x5F, W                 
     3331    0D02         1803                  BTFSC STATUS, 0x0             
     3332    0D03         2D26                  GOTO 0x526                    
     3333    0D04         355F                  LSLF 0x5F, W                  
     3334    0D05         27C8                  CALL 0x7C8                    
     3335    0D06         3189                  MOVLP 0x9                     
     3336    0D07         1903                  BTFSC STATUS, 0x2             
     3337    0D08         2D22                  GOTO 0x522                    
     3338    0D09         3001                  MOVLW 0x1                     
     3339    0D0A         00E3                  MOVWF 0x63                    
     3340    0D0B         0A5F                  INCF 0x5F, W                  
     3341    0D0C         2D0E                  GOTO 0x50E                    
     3342    0D0D         35E3                  LSLF 0x63, F                  
     3343    0D0E         0B89                  DECFSZ WREG, F                
     3344    0D0F         2D0D                  GOTO 0x50D                    
     3345    0D10         0863                  MOVF 0x63, W                  
     3346    0D11         055E                  ANDWF 0x5E, W                 
     3347    0D12         1903                  BTFSC STATUS, 0x2             
     3348    0D13         2D22                  GOTO 0x522                    
     3349    0D14         355F                  LSLF 0x5F, W                  
     3350    0D15         3E21                  ADDLW 0x21                    
     3351    0D16         2759                  CALL 0x759                    
     3352    0D17         3189                  MOVLP 0x9                     
     3353    0D18         00F4                  MOVWF 0x74                    
     3354    0D19         085B                  MOVF 0x5B, W                  
     3355    0D1A         26E9                  CALL 0x6E9                    
     3356    0D1B         3189                  MOVLP 0x9                     
     3357    0D1C         27E7                  CALL 0x7E7                    
     3358    0D1D         3189                  MOVLP 0x9                     
     3359    0D1E         26E9                  CALL 0x6E9                    
     3360    0D1F         3189                  MOVLP 0x9                     
     3361    0D20         0020                  MOVLB 0x0                     
     3362    0D21         2D23                  GOTO 0x523                    
     3363    0D22         0ADB                  INCF 0x5B, F                  
     3364    0D23         0ADB                  INCF 0x5B, F                  
     3365    0D24         0ADF                  INCF 0x5F, F                  
     3366    0D25         2D00                  GOTO 0x500                    
     3367    0D26         0023                  MOVLB 0x3                     
     3368    0D27         1895                  BTFSC EECON1, 0x1             
     3369    0D28         2D26                  GOTO 0x526                    
     3370    0D29         12F1                  BCF 0x1F1, 0x5                
     3371    0D2A         0008                  RETURN                        
     3372    0D2B         1EF1                  BTFSS 0x1F1, 0x5              
     3373    0D2C         2CE0                  GOTO 0x4E0                    
     3374    0D2D         0AD5                  INCF 0x1D5, F                 
     3375    0D2E         084E                  MOVF 0x1CE, W                 
     3376    0D2F         3A05                  XORLW 0x5                     
     3377    0D30         1D03                  BTFSS 0x183, 0x2              
     3378    0D31         0008                  RETURN                        
     3379    0D32         3015                  MOVLW 0x15                    
     3380    0D33         2CDD                  GOTO 0x4DD                    
     3381    0D34         0021                  MOVLB 0x1                     
     3382    0D35         01C5                  CLRF 0xC5                     
     3383    0D36         0020                  MOVLB 0x0                     
     3384    0D37         01D5                  CLRF 0x55                     
     3385    0D38         0008                  RETURN                        
     3386    0D39         083E                  MOVF 0x3E, W                  
     3387    0D3A         3A00                  XORLW 0x0                     
     3388    0D3B         1903                  BTFSC STATUS, 0x2             
     3389    0D3C         2D2B                  GOTO 0x52B                    
     3390    0D3D         3A04                  XORLW 0x4                     
     3391    0D3E         1903                  BTFSC STATUS, 0x2             
     3392    0D3F         2CFD                  GOTO 0x4FD                    
     3393    0D40         3A01                  XORLW 0x1                     
     3394    0D41         1903                  BTFSC STATUS, 0x2             
     3395    0D42         2CF8                  GOTO 0x4F8                    
     3396    0D43         2D34                  GOTO 0x534                    
     3397    0D44         0020                  MOVLB 0x0                     
     3398    0D45         01BF                  CLRF 0x3F                     
     3399    0D46         2D80                  GOTO 0x580                    
     3400    0D47         1EF1                  BTFSS 0x71, 0x5               
     3401    0D48         0008                  RETURN                        
     3402    0D49         01DF                  CLRF 0x5F                     
     3403    0D4A         3004                  MOVLW 0x4                     
     3404    0D4B         025F                  SUBWF 0x5F, W                 
     3405    0D4C         1803                  BTFSC STATUS, 0x0             
     3406    0D4D         2D70                  GOTO 0x570                    
     3407    0D4E         355F                  LSLF 0x5F, W                  
     3408    0D4F         27C8                  CALL 0x7C8                    
     3409    0D50         3189                  MOVLP 0x9                     
     3410    0D51         1903                  BTFSC STATUS, 0x2             
     3411    0D52         2D6C                  GOTO 0x56C                    
     3412    0D53         3001                  MOVLW 0x1                     
     3413    0D54         00E3                  MOVWF 0x63                    
     3414    0D55         0A5F                  INCF 0x5F, W                  
     3415    0D56         2D58                  GOTO 0x558                    
     3416    0D57         35E3                  LSLF 0x63, F                  
     3417    0D58         0B89                  DECFSZ WREG, F                
     3418    0D59         2D57                  GOTO 0x557                    
     3419    0D5A         0863                  MOVF 0x63, W                  
     3420    0D5B         055E                  ANDWF 0x5E, W                 
     3421    0D5C         1903                  BTFSC STATUS, 0x2             
     3422    0D5D         2D6C                  GOTO 0x56C                    
     3423    0D5E         355F                  LSLF 0x5F, W                  
     3424    0D5F         3E21                  ADDLW 0x21                    
     3425    0D60         2759                  CALL 0x759                    
     3426    0D61         3189                  MOVLP 0x9                     
     3427    0D62         00F4                  MOVWF 0x74                    
     3428    0D63         085B                  MOVF 0x5B, W                  
     3429    0D64         26E9                  CALL 0x6E9                    
     3430    0D65         3189                  MOVLP 0x9                     
     3431    0D66         27E7                  CALL 0x7E7                    
     3432    0D67         3189                  MOVLP 0x9                     
     3433    0D68         26E9                  CALL 0x6E9                    
     3434    0D69         3189                  MOVLP 0x9                     
     3435    0D6A         0020                  MOVLB 0x0                     
     3436    0D6B         2D6D                  GOTO 0x56D                    
     3437    0D6C         0ADB                  INCF 0x5B, F                  
     3438    0D6D         0ADB                  INCF 0x5B, F                  
     3439    0D6E         0ADF                  INCF 0x5F, F                  
     3440    0D6F         2D4A                  GOTO 0x54A                    
     3441    0D70         0023                  MOVLB 0x3                     
     3442    0D71         1C95                  BTFSS EECON1, 0x1             
     3443    0D72         2D29                  GOTO 0x529                    
     3444    0D73         2D70                  GOTO 0x570                    
     3445    0D74         1EF1                  BTFSS 0x1F1, 0x5              
     3446    0D75         2CF8                  GOTO 0x4F8                    
     3447    0D76         0AD5                  INCF 0x1D5, F                 
     3448    0D77         084E                  MOVF 0x1CE, W                 
     3449    0D78         3A05                  XORLW 0x5                     
     3450    0D79         1D03                  BTFSS 0x183, 0x2              
     3451    0D7A         0008                  RETURN                        
     3452    0D7B         3015                  MOVLW 0x15                    
     3453    0D7C         0255                  SUBWF 0x1D5, W                
     3454    0D7D         1C03                  BTFSS 0x183, 0x0              
     3455    0D7E         0008                  RETURN                        
     3456    0D7F         2D34                  GOTO 0x534                    
     3457    0D80         083E                  MOVF 0x1BE, W                 
     3458    0D81         3A00                  XORLW 0x0                     
     3459    0D82         1903                  BTFSC 0x183, 0x2              
     3460    0D83         2D74                  GOTO 0x574                    
     3461    0D84         3A01                  XORLW 0x1                     
     3462    0D85         1903                  BTFSC 0x183, 0x2              
     3463    0D86         2D47                  GOTO 0x547                    
     3464    0D87         3A03                  XORLW 0x3                     
     3465    0D88         1903                  BTFSC 0x183, 0x2              
     3466    0D89         2D47                  GOTO 0x547                    
     3467    0D8A         3A06                  XORLW 0x6                     
     3468    0D8B         1903                  BTFSC 0x183, 0x2              
     3469    0D8C         2D47                  GOTO 0x547                    
     3470    0D8D         3A01                  XORLW 0x1                     
     3471    0D8E         1903                  BTFSC 0x183, 0x2              
     3472    0D8F         2CF8                  GOTO 0x4F8                    
     3473    0D90         2D34                  GOTO 0x534                    
     3474    0D91         0020                  MOVLB 0x0                     
     3475    0D92         083E                  MOVF 0x3E, W                  
     3476    0D93         3A04                  XORLW 0x4                     
     3477    0D94         1D03                  BTFSS STATUS, 0x2             
     3478    0D95         2ED6                  GOTO 0x6D6                    
     3479    0D96         08C0                  MOVF 0x40, F                  
     3480    0D97         1903                  BTFSC STATUS, 0x2             
     3481    0D98         2ECC                  GOTO 0x6CC                    
     3482    0D99         2ED6                  GOTO 0x6D6                    
     3483    0D9A         01BC                  CLRF 0x3C                     
     3484    0D9B         0021                  MOVLB 0x1                     
     3485    0D9C         27F6                  CALL 0x7F6                    
     3486    0D9D         3189                  MOVLP 0x9                     
     3487    0D9E         01B1                  CLRF 0xB1                     
     3488    0D9F         01B2                  CLRF 0xB2                     
     3489    0DA0         01DF                  CLRF 0xDF                     
     3490    0DA1         3004                  MOVLW 0x4                     
     3491    0DA2         025F                  SUBWF 0xDF, W                 
     3492    0DA3         1803                  BTFSC 0x83, 0x0               
     3493    0DA4         2DDE                  GOTO 0x5DE                    
     3494    0DA5         355F                  LSLF 0xDF, W                  
     3495    0DA6         3EA0                  ADDLW 0xA0                    
     3496    0DA7         27F1                  CALL 0x7F1                    
     3497    0DA8         3189                  MOVLP 0x9                     
     3498    0DA9         1903                  BTFSC 0x83, 0x2               
     3499    0DAA         2DDB                  GOTO 0x5DB                    
     3500    0DAB         3001                  MOVLW 0x1                     
     3501    0DAC         00E3                  MOVWF 0xE3                    
     3502    0DAD         0A5F                  INCF 0xDF, W                  
     3503    0DAE         2DB0                  GOTO 0x5B0                    
     3504    0DAF         35E3                  LSLF 0xE3, F                  
     3505    0DB0         0B89                  DECFSZ 0x89, F                
     3506    0DB1         2DAF                  GOTO 0x5AF                    
     3507    0DB2         0863                  MOVF 0xE3, W                  
     3508    0DB3         055E                  ANDWF 0xDE, W                 
     3509    0DB4         1903                  BTFSC 0x83, 0x2               
     3510    0DB5         2DDB                  GOTO 0x5DB                    
     3511    0DB6         355F                  LSLF 0xDF, W                  
     3512    0DB7         3EA0                  ADDLW 0xA0                    
     3513    0DB8         2759                  CALL 0x759                    
     3514    0DB9         3189                  MOVLP 0x9                     
     3515    0DBA         0863                  MOVF 0xE3, W                  
     3516    0DBB         3E91                  ADDLW 0x91                    
     3517    0DBC         00E5                  MOVWF 0xE5                    
     3518    0DBD         30FF                  MOVLW 0xFF                    
     3519    0DBE         3D64                  ADDWFC 0xE4, W                
     3520    0DBF         27B0                  CALL 0x7B0                    
     3521    0DC0         3189                  MOVLP 0x9                     
     3522    0DC1         2771                  CALL 0x771                    
     3523    0DC2         3189                  MOVLP 0x9                     
     3524    0DC3         1803                  BTFSC 0x83, 0x0               
     3525    0DC4         2DDB                  GOTO 0x5DB                    
     3526    0DC5         3004                  MOVLW 0x4                     
     3527    0DC6         00BC                  MOVWF 0xBC                    
     3528    0DC7         355F                  LSLF 0xDF, W                  
     3529    0DC8         3EA0                  ADDLW 0xA0                    
     3530    0DC9         2759                  CALL 0x759                    
     3531    0DCA         3189                  MOVLP 0x9                     
     3532    0DCB         082E                  MOVF 0xAE, W                  
     3533    0DCC         0264                  SUBWF 0xE4, W                 
     3534    0DCD         1D03                  BTFSS 0x83, 0x2               
     3535    0DCE         2DD1                  GOTO 0x5D1                    
     3536    0DCF         082D                  MOVF 0xAD, W                  
     3537    0DD0         0263                  SUBWF 0xE3, W                 
     3538    0DD1         1803                  BTFSC 0x83, 0x0               
     3539    0DD2         2DDB                  GOTO 0x5DB                    
     3540    0DD3         355F                  LSLF 0xDF, W                  
     3541    0DD4         3EA0                  ADDLW 0xA0                    
     3542    0DD5         0086                  MOVWF 0x86                    
     3543    0DD6         0187                  CLRF 0x87                     
     3544    0DD7         27B5                  CALL 0x7B5                    
     3545    0DD8         3189                  MOVLP 0x9                     
     3546    0DD9         279F                  CALL 0x79F                    
     3547    0DDA         3189                  MOVLP 0x9                     
     3548    0DDB         0020                  MOVLB 0x0                     
     3549    0DDC         0ADF                  INCF 0x5F, F                  
     3550    0DDD         2DA1                  GOTO 0x5A1                    
     3551    0DDE         08BC                  MOVF 0x3C, F                  
     3552    0DDF         1D03                  BTFSS STATUS, 0x2             
     3553    0DE0         2E1C                  GOTO 0x61C                    
     3554    0DE1         01DF                  CLRF 0x5F                     
     3555    0DE2         3004                  MOVLW 0x4                     
     3556    0DE3         025F                  SUBWF 0x5F, W                 
     3557    0DE4         1803                  BTFSC STATUS, 0x0             
     3558    0DE5         2E1C                  GOTO 0x61C                    
     3559    0DE6         355F                  LSLF 0x5F, W                  
     3560    0DE7         3EA0                  ADDLW 0xA0                    
     3561    0DE8         27F1                  CALL 0x7F1                    
     3562    0DE9         3189                  MOVLP 0x9                     
     3563    0DEA         1903                  BTFSC STATUS, 0x2             
     3564    0DEB         2E19                  GOTO 0x619                    
     3565    0DEC         3001                  MOVLW 0x1                     
     3566    0DED         00E3                  MOVWF 0x63                    
     3567    0DEE         0A5F                  INCF 0x5F, W                  
     3568    0DEF         2DF1                  GOTO 0x5F1                    
     3569    0DF0         35E3                  LSLF 0x63, F                  
     3570    0DF1         0B89                  DECFSZ WREG, F                
     3571    0DF2         2DF0                  GOTO 0x5F0                    
     3572    0DF3         0863                  MOVF 0x63, W                  
     3573    0DF4         055E                  ANDWF 0x5E, W                 
     3574    0DF5         1903                  BTFSC STATUS, 0x2             
     3575    0DF6         2E19                  GOTO 0x619                    
     3576    0DF7         355F                  LSLF 0x5F, W                  
     3577    0DF8         3E21                  ADDLW 0x21                    
     3578    0DF9         2759                  CALL 0x759                    
     3579    0DFA         3189                  MOVLP 0x9                     
     3580    0DFB         355F                  LSLF 0x5F, W                  
     3581    0DFC         3EA0                  ADDLW 0xA0                    
     3582    0DFD         0086                  MOVWF FSR1                    
     3583    0DFE         2760                  CALL 0x760                    
     3584    0DFF         3189                  MOVLP 0x9                     
     3585    0E00         1803                  BTFSC STATUS, 0x0             
     3586    0E01         2E19                  GOTO 0x619                    
     3587    0E02         3002                  MOVLW 0x2                     
     3588    0E03         00BC                  MOVWF 0x3C                    
     3589    0E04         355F                  LSLF 0x5F, W                  
     3590    0E05         3EA0                  ADDLW 0xA0                    
     3591    0E06         2759                  CALL 0x759                    
     3592    0E07         3189                  MOVLP 0x9                     
     3593    0E08         0232                  SUBWF 0x32, W                 
     3594    0E09         1D03                  BTFSS STATUS, 0x2             
     3595    0E0A         2E0D                  GOTO 0x60D                    
     3596    0E0B         0863                  MOVF 0x63, W                  
     3597    0E0C         0231                  SUBWF 0x31, W                 
     3598    0E0D         1803                  BTFSC STATUS, 0x0             
     3599    0E0E         2E19                  GOTO 0x619                    
     3600    0E0F         355F                  LSLF 0x5F, W                  
     3601    0E10         3EA0                  ADDLW 0xA0                    
     3602    0E11         0086                  MOVWF FSR1                    
     3603    0E12         0187                  CLRF FSR1H                    
     3604    0E13         27C3                  CALL 0x7C3                    
     3605    0E14         3189                  MOVLP 0x9                     
     3606    0E15         27BA                  CALL 0x7BA                    
     3607    0E16         3189                  MOVLP 0x9                     
     3608    0E17         1803                  BTFSC STATUS, 0x0             
     3609    0E18         0ABE                  INCF 0x3E, F                  
     3610    0E19         0020                  MOVLB 0x0                     
     3611    0E1A         0ADF                  INCF 0x5F, F                  
     3612    0E1B         2DE2                  GOTO 0x5E2                    
     3613    0E1C         3004                  MOVLW 0x4                     
     3614    0E1D         01DF                  CLRF 0x5F                     
     3615    0E1E         025F                  SUBWF 0x5F, W                 
     3616    0E1F         1803                  BTFSC STATUS, 0x0             
     3617    0E20         0008                  RETURN                        
     3618    0E21         355F                  LSLF 0x5F, W                  
     3619    0E22         3EA0                  ADDLW 0xA0                    
     3620    0E23         27F1                  CALL 0x7F1                    
     3621    0E24         3189                  MOVLP 0x9                     
     3622    0E25         1903                  BTFSC STATUS, 0x2             
     3623    0E26         2EAC                  GOTO 0x6AC                    
     3624    0E27         3001                  MOVLW 0x1                     
     3625    0E28         00E3                  MOVWF 0x63                    
     3626    0E29         0A5F                  INCF 0x5F, W                  
     3627    0E2A         2E2C                  GOTO 0x62C                    
     3628    0E2B         35E3                  LSLF 0x63, F                  
     3629    0E2C         0B89                  DECFSZ WREG, F                
     3630    0E2D         2E2B                  GOTO 0x62B                    
     3631    0E2E         0863                  MOVF 0x63, W                  
     3632    0E2F         055E                  ANDWF 0x5E, W                 
     3633    0E30         1903                  BTFSC STATUS, 0x2             
     3634    0E31         2EAC                  GOTO 0x6AC                    
     3635    0E32         083C                  MOVF 0x3C, W                  
     3636    0E33         3A04                  XORLW 0x4                     
     3637    0E34         1D03                  BTFSS STATUS, 0x2             
     3638    0E35         2E75                  GOTO 0x675                    
     3639    0E36         355F                  LSLF 0x5F, W                  
     3640    0E37         3E21                  ADDLW 0x21                    
     3641    0E38         2759                  CALL 0x759                    
     3642    0E39         3189                  MOVLP 0x9                     
     3643    0E3A         0021                  MOVLB 0x1                     
     3644    0E3B         083C                  MOVF 0xBC, W                  
     3645    0E3C         0020                  MOVLB 0x0                     
     3646    0E3D         0264                  SUBWF 0x64, W                 
     3647    0E3E         1D03                  BTFSS STATUS, 0x2             
     3648    0E3F         2E44                  GOTO 0x644                    
     3649    0E40         0021                  MOVLB 0x1                     
     3650    0E41         083B                  MOVF 0xBB, W                  
     3651    0E42         0020                  MOVLB 0x0                     
     3652    0E43         0263                  SUBWF 0x63, W                 
     3653    0E44         1803                  BTFSC STATUS, 0x0             
     3654    0E45         2E75                  GOTO 0x675                    
     3655    0E46         355F                  LSLF 0x5F, W                  
     3656    0E47         3E21                  ADDLW 0x21                    
     3657    0E48         2759                  CALL 0x759                    
     3658    0E49         3189                  MOVLP 0x9                     
     3659    0E4A         355F                  LSLF 0x5F, W                  
     3660    0E4B         3EA0                  ADDLW 0xA0                    
     3661    0E4C         0086                  MOVWF FSR1                    
     3662    0E4D         3F40                  MOVIW [0]FSR1                 
     3663    0E4E         00E5                  MOVWF 0x65                    
     3664    0E4F         3F41                  MOVIW [1]FSR1                 
     3665    0E50         00E6                  MOVWF 0x66                    
     3666    0E51         0865                  MOVF 0x65, W                  
     3667    0E52         3E91                  ADDLW 0x91                    
     3668    0E53         00E7                  MOVWF 0x67                    
     3669    0E54         30FF                  MOVLW 0xFF                    
     3670    0E55         3D66                  ADDWFC 0x66, W                
     3671    0E56         00E8                  MOVWF 0x68                    
     3672    0E57         0864                  MOVF 0x64, W                  
     3673    0E58         0268                  SUBWF 0x68, W                 
     3674    0E59         1D03                  BTFSS STATUS, 0x2             
     3675    0E5A         2E5D                  GOTO 0x65D                    
     3676    0E5B         0863                  MOVF 0x63, W                  
     3677    0E5C         0267                  SUBWF 0x67, W                 
     3678    0E5D         1C03                  BTFSS STATUS, 0x0             
     3679    0E5E         2E75                  GOTO 0x675                    
     3680    0E5F         355F                  LSLF 0x5F, W                  
     3681    0E60         3E28                  ADDLW 0x28                    
     3682    0E61         2792                  CALL 0x792                    
     3683    0E62         3189                  MOVLP 0x9                     
     3684    0E63         355F                  LSLF 0x5F, W                  
     3685    0E64         3EA0                  ADDLW 0xA0                    
     3686    0E65         0086                  MOVWF FSR1                    
     3687    0E66         0187                  CLRF FSR1H                    
     3688    0E67         27DC                  CALL 0x7DC                    
     3689    0E68         3189                  MOVLP 0x9                     
     3690    0E69         1803                  BTFSC STATUS, 0x0             
     3691    0E6A         2E75                  GOTO 0x675                    
     3692    0E6B         3001                  MOVLW 0x1                     
     3693    0E6C         00E3                  MOVWF 0x63                    
     3694    0E6D         0A5F                  INCF 0x5F, W                  
     3695    0E6E         2E70                  GOTO 0x670                    
     3696    0E6F         35E3                  LSLF 0x63, F                  
     3697    0E70         0B89                  DECFSZ WREG, F                
     3698    0E71         2E6F                  GOTO 0x66F                    
     3699    0E72         0863                  MOVF 0x63, W                  
     3700    0E73         0021                  MOVLB 0x1                     
     3701    0E74         04D5                  IORWF 0xD5, F                 
     3702    0E75         0020                  MOVLB 0x0                     
     3703    0E76         083C                  MOVF 0x3C, W                  
     3704    0E77         3A02                  XORLW 0x2                     
     3705    0E78         1D03                  BTFSS STATUS, 0x2             
     3706    0E79         2EAC                  GOTO 0x6AC                    
     3707    0E7A         355F                  LSLF 0x5F, W                  
     3708    0E7B         3E21                  ADDLW 0x21                    
     3709    0E7C         2759                  CALL 0x759                    
     3710    0E7D         3189                  MOVLP 0x9                     
     3711    0E7E         0021                  MOVLB 0x1                     
     3712    0E7F         023E                  SUBWF 0xBE, W                 
     3713    0E80         1D03                  BTFSS 0x83, 0x2               
     3714    0E81         2E86                  GOTO 0x686                    
     3715    0E82         0020                  MOVLB 0x0                     
     3716    0E83         0863                  MOVF 0x63, W                  
     3717    0E84         0021                  MOVLB 0x1                     
     3718    0E85         023D                  SUBWF 0xBD, W                 
     3719    0E86         1803                  BTFSC 0x83, 0x0               
     3720    0E87         2EAC                  GOTO 0x6AC                    
     3721    0E88         0020                  MOVLB 0x0                     
     3722    0E89         355F                  LSLF 0x5F, W                  
     3723    0E8A         3EA0                  ADDLW 0xA0                    
     3724    0E8B         2759                  CALL 0x759                    
     3725    0E8C         3189                  MOVLP 0x9                     
     3726    0E8D         0863                  MOVF 0x63, W                  
     3727    0E8E         3E6F                  ADDLW 0x6F                    
     3728    0E8F         00E5                  MOVWF 0x65                    
     3729    0E90         3000                  MOVLW 0x0                     
     3730    0E91         3D64                  ADDWFC 0x64, W                
     3731    0E92         27B0                  CALL 0x7B0                    
     3732    0E93         3189                  MOVLP 0x9                     
     3733    0E94         2771                  CALL 0x771                    
     3734    0E95         3189                  MOVLP 0x9                     
     3735    0E96         1C03                  BTFSS STATUS, 0x0             
     3736    0E97         2EAC                  GOTO 0x6AC                    
     3737    0E98         355F                  LSLF 0x5F, W                  
     3738    0E99         3EA0                  ADDLW 0xA0                    
     3739    0E9A         2759                  CALL 0x759                    
     3740    0E9B         3189                  MOVLP 0x9                     
     3741    0E9C         27AA                  CALL 0x7AA                    
     3742    0E9D         3189                  MOVLP 0x9                     
     3743    0E9E         27DC                  CALL 0x7DC                    
     3744    0E9F         3189                  MOVLP 0x9                     
     3745    0EA0         1803                  BTFSC STATUS, 0x0             
     3746    0EA1         2EAC                  GOTO 0x6AC                    
     3747    0EA2         3001                  MOVLW 0x1                     
     3748    0EA3         00E3                  MOVWF 0x63                    
     3749    0EA4         0A5F                  INCF 0x5F, W                  
     3750    0EA5         2EA7                  GOTO 0x6A7                    
     3751    0EA6         35E3                  LSLF 0x63, F                  
     3752    0EA7         0B89                  DECFSZ WREG, F                
     3753    0EA8         2EA6                  GOTO 0x6A6                    
     3754    0EA9         0863                  MOVF 0x63, W                  
     3755    0EAA         0021                  MOVLB 0x1                     
     3756    0EAB         04D5                  IORWF 0xD5, F                 
     3757    0EAC         0020                  MOVLB 0x0                     
     3758    0EAD         3004                  MOVLW 0x4                     
     3759    0EAE         0ADF                  INCF 0x5F, F                  
     3760    0EAF         2E1E                  GOTO 0x61E                    
     3761    0EB0         3005                  MOVLW 0x5                     
     3762    0EB1         00BC                  MOVWF 0x3C                    
     3763    0EB2         3002                  MOVLW 0x2                     
     3764    0EB3         00BF                  MOVWF 0x3F                    
     3765    0EB4         0008                  RETURN                        
     3766    0EB5         1CF0                  BTFSS 0x70, 0x1               
     3767    0EB6         2EBD                  GOTO 0x6BD                    
     3768    0EB7         01BC                  CLRF 0x3C                     
     3769    0EB8         0ABC                  INCF 0x3C, F                  
     3770    0EB9         01BF                  CLRF 0x3F                     
     3771    0EBA         1F71                  BTFSS 0x71, 0x6               
     3772    0EBB         0ADF                  INCF 0x5F, F                  
     3773    0EBC         0008                  RETURN                        
     3774    0EBD         3002                  MOVLW 0x2                     
     3775    0EBE         00BF                  MOVWF 0x3F                    
     3776    0EBF         0008                  RETURN                        
     3777    0EC0         3003                  MOVLW 0x3                     
     3778    0EC1         00BC                  MOVWF 0x3C                    
     3779    0EC2         01BF                  CLRF 0x3F                     
     3780    0EC3         0ABF                  INCF 0x3F, F                  
     3781    0EC4         0008                  RETURN                        
     3782    0EC5         1CF0                  BTFSS 0x70, 0x1               
     3783    0EC6         2EC2                  GOTO 0x6C2                    
     3784    0EC7         2EB7                  GOTO 0x6B7                    
     3785    0EC8         300F                  MOVLW 0xF                     
     3786    0EC9         0021                  MOVLB 0x1                     
     3787    0ECA         00D5                  MOVWF 0xD5                    
     3788    0ECB         0008                  RETURN                        
     3789    0ECC         083C                  MOVF 0xBC, W                  
     3790    0ECD         0084                  MOVWF 0x84                    
     3791    0ECE         3006                  MOVLW 0x6                     
     3792    0ECF         0204                  SUBWF 0x84, W                 
     3793    0ED0         1803                  BTFSC 0x83, 0x0               
     3794    0ED1         0008                  RETURN                        
     3795    0ED2         3198                  MOVLP 0x18                    
     3796    0ED3         3504                  LSLF 0x84, W                  
     3797    0ED4         3E20                  ADDLW 0x20                    
     3798    0ED5         0082                  MOVWF 0x82                    
     3799    0ED6         3181                  MOVLP 0x1                     
     3800    0ED7         21A3                  CALL 0x1A3                    
     3801    0ED8         3189                  MOVLP 0x9                     
     3802    0ED9         01C5                  CLRF 0xC5                     
     3803    0EDA         0020                  MOVLB 0x0                     
     3804    0EDB         01BF                  CLRF 0x3F                     
     3805    0EDC         2EC8                  GOTO 0x6C8                    
     3806    0EDD         0021                  MOVLB 0x1                     
     3807    0EDE         0845                  MOVF 0xC5, W                  
     3808    0EDF         0084                  MOVWF 0x84                    
     3809    0EE0         3005                  MOVLW 0x5                     
     3810    0EE1         0204                  SUBWF 0x84, W                 
     3811    0EE2         1803                  BTFSC 0x83, 0x0               
     3812    0EE3         2CE0                  GOTO 0x4E0                    
     3813    0EE4         3198                  MOVLP 0x18                    
     3814    0EE5         3504                  LSLF 0x84, W                  
     3815    0EE6         3E2C                  ADDLW 0x2C                    
     3816    0EE7         0082                  MOVWF 0x82                    
     3817    0EE8         0008                  RETURN                        
     3818    0EE9         00F5                  MOVWF 0xF5                    
     3819    0EEA         0023                  MOVLB 0x3                     
     3820    0EEB         1895                  BTFSC EECON1, 0x1             
     3821    0EEC         2EEA                  GOTO 0x6EA                    
     3822    0EED         0875                  MOVF 0x1F5, W                 
     3823    0EEE         0091                  MOVWF EEADR                   
     3824    0EEF         0192                  CLRF EEADRH                   
     3825    0EF0         0874                  MOVF 0x1F4, W                 
     3826    0EF1         0093                  MOVWF EEDAT                   
     3827    0EF2         303F                  MOVLW 0x3F                    
     3828    0EF3         0595                  ANDWF EECON1, F               
     3829    0EF4         1003                  BCF 0x183, 0x0                
     3830    0EF5         1B8B                  BTFSC 0x18B, 0x7              
     3831    0EF6         1403                  BSF 0x183, 0x0                
     3832    0EF7         138B                  BCF 0x18B, 0x7                
     3833    0EF8         1515                  BSF EECON1, 0x2               
     3834    0EF9         3055                  MOVLW 0x55                    
     3835    0EFA         0096                  MOVWF EECON2                  
     3836    0EFB         30AA                  MOVLW 0xAA                    
     3837    0EFC         0096                  MOVWF EECON2                  
     3838    0EFD         1495                  BSF EECON1, 0x1               
     3839    0EFE         1115                  BCF EECON1, 0x2               
     3840    0EFF         1803                  BTFSC 0x183, 0x0              
     3841    0F00         178B                  BSF 0x18B, 0x7                
     3842    0F01         0008                  RETURN                        
     3843    0F02         3000                  MOVLW 0x0                     
     3844    0F03         0020                  MOVLB 0x0                     
     3845    0F04         180D                  BTFSC PORTB, 0x0              
     3846    0F05         3001                  MOVLW 0x1                     
     3847    0F06         00E9                  MOVWF 0x69                    
     3848    0F07         0659                  XORWF 0x59, W                 
     3849    0F08         39FE                  ANDLW 0xFE                    
     3850    0F09         0669                  XORWF 0x69, W                 
     3851    0F0A         00D9                  MOVWF 0x59                    
     3852    0F0B         3000                  MOVLW 0x0                     
     3853    0F0C         188D                  BTFSC PORTB, 0x1              
     3854    0F0D         3001                  MOVLW 0x1                     
     3855    0F0E         00E9                  MOVWF 0x69                    
     3856    0F0F         0DE9                  RLF 0x69, F                   
     3857    0F10         0859                  MOVF 0x59, W                  
     3858    0F11         0669                  XORWF 0x69, W                 
     3859    0F12         39FD                  ANDLW 0xFD                    
     3860    0F13         0669                  XORWF 0x69, W                 
     3861    0F14         00D9                  MOVWF 0x59                    
     3862    0F15         3000                  MOVLW 0x0                     
     3863    0F16         190D                  BTFSC PORTB, 0x2              
     3864    0F17         3001                  MOVLW 0x1                     
     3865    0F18         00E9                  MOVWF 0x69                    
     3866    0F19         0DE9                  RLF 0x69, F                   
     3867    0F1A         0DE9                  RLF 0x69, F                   
     3868    0F1B         0859                  MOVF 0x59, W                  
     3869    0F1C         0669                  XORWF 0x69, W                 
     3870    0F1D         39FB                  ANDLW 0xFB                    
     3871    0F1E         0669                  XORWF 0x69, W                 
     3872    0F1F         00D9                  MOVWF 0x59                    
     3873    0F20         3000                  MOVLW 0x0                     
     3874    0F21         198D                  BTFSC PORTB, 0x3              
     3875    0F22         3001                  MOVLW 0x1                     
     3876    0F23         00E9                  MOVWF 0x69                    
     3877    0F24         0DE9                  RLF 0x69, F                   
     3878    0F25         0DE9                  RLF 0x69, F                   
     3879    0F26         0DE9                  RLF 0x69, F                   
     3880    0F27         0859                  MOVF 0x59, W                  
     3881    0F28         0669                  XORWF 0x69, W                 
     3882    0F29         39F7                  ANDLW 0xF7                    
     3883    0F2A         0669                  XORWF 0x69, W                 
     3884    0F2B         00D9                  MOVWF 0x59                    
     3885    0F2C         3000                  MOVLW 0x0                     
     3886    0F2D         1B8D                  BTFSC PORTB, 0x7              
     3887    0F2E         3001                  MOVLW 0x1                     
     3888    0F2F         00E9                  MOVWF 0x69                    
     3889    0F30         0EE9                  SWAPF 0x69, F                 
     3890    0F31         0859                  MOVF 0x59, W                  
     3891    0F32         0669                  XORWF 0x69, W                 
     3892    0F33         39EF                  ANDLW 0xEF                    
     3893    0F34         0669                  XORWF 0x69, W                 
     3894    0F35         00D9                  MOVWF 0x59                    
     3895    0F36         3000                  MOVLW 0x0                     
     3896    0F37         1B0D                  BTFSC PORTB, 0x6              
     3897    0F38         3001                  MOVLW 0x1                     
     3898    0F39         00E9                  MOVWF 0x69                    
     3899    0F3A         0EE9                  SWAPF 0x69, F                 
     3900    0F3B         0DE9                  RLF 0x69, F                   
     3901    0F3C         0859                  MOVF 0x59, W                  
     3902    0F3D         0669                  XORWF 0x69, W                 
     3903    0F3E         39DF                  ANDLW 0xDF                    
     3904    0F3F         0669                  XORWF 0x69, W                 
     3905    0F40         00D9                  MOVWF 0x59                    
     3906    0F41         3000                  MOVLW 0x0                     
     3907    0F42         1990                  BTFSC PORTE, 0x3              
     3908    0F43         3001                  MOVLW 0x1                     
     3909    0F44         00E9                  MOVWF 0x69                    
     3910    0F45         0EE9                  SWAPF 0x69, F                 
     3911    0F46         0DE9                  RLF 0x69, F                   
     3912    0F47         0DE9                  RLF 0x69, F                   
     3913    0F48         0859                  MOVF 0x59, W                  
     3914    0F49         0669                  XORWF 0x69, W                 
     3915    0F4A         39BF                  ANDLW 0xBF                    
     3916    0F4B         0669                  XORWF 0x69, W                 
     3917    0F4C         00D9                  MOVWF 0x59                    
     3918    0F4D         3000                  MOVLW 0x0                     
     3919    0F4E         188E                  BTFSC PORTC, 0x1              
     3920    0F4F         3001                  MOVLW 0x1                     
     3921    0F50         00E9                  MOVWF 0x69                    
     3922    0F51         0CE9                  RRF 0x69, F                   
     3923    0F52         0CE9                  RRF 0x69, F                   
     3924    0F53         0859                  MOVF 0x59, W                  
     3925    0F54         0669                  XORWF 0x69, W                 
     3926    0F55         397F                  ANDLW 0x7F                    
     3927    0F56         0669                  XORWF 0x69, W                 
     3928    0F57         00D9                  MOVWF 0x59                    
     3929    0F58         0008                  RETURN                        
     3930    0F59         0086                  MOVWF FSR1                    
     3931    0F5A         0187                  CLRF FSR1H                    
     3932    0F5B         3F40                  MOVIW [0]FSR1                 
     3933    0F5C         00E3                  MOVWF 0x63                    
     3934    0F5D         3F41                  MOVIW [1]FSR1                 
     3935    0F5E         00E4                  MOVWF 0x64                    
     3936    0F5F         0008                  RETURN                        
     3937    0F60         3F40                  MOVIW [0]FSR1                 
     3938    0F61         00E5                  MOVWF 0x65                    
     3939    0F62         3F41                  MOVIW [1]FSR1                 
     3940    0F63         00E6                  MOVWF 0x66                    
     3941    0F64         0865                  MOVF 0x65, W                  
     3942    0F65         3E6F                  ADDLW 0x6F                    
     3943    0F66         00E7                  MOVWF 0x67                    
     3944    0F67         3000                  MOVLW 0x0                     
     3945    0F68         3D66                  ADDWFC 0x66, W                
     3946    0F69         00E8                  MOVWF 0x68                    
     3947    0F6A         0864                  MOVF 0x64, W                  
     3948    0F6B         0268                  SUBWF 0x68, W                 
     3949    0F6C         1D03                  BTFSS STATUS, 0x2             
     3950    0F6D         0008                  RETURN                        
     3951    0F6E         0863                  MOVF 0x63, W                  
     3952    0F6F         0267                  SUBWF 0x67, W                 
     3953    0F70         0008                  RETURN                        
     3954    0F71         3F40                  MOVIW [0]FSR1                 
     3955    0F72         00E7                  MOVWF 0x67                    
     3956    0F73         3F41                  MOVIW [1]FSR1                 
     3957    0F74         00E8                  MOVWF 0x68                    
     3958    0F75         0866                  MOVF 0x66, W                  
     3959    0F76         0268                  SUBWF 0x68, W                 
     3960    0F77         1D03                  BTFSS STATUS, 0x2             
     3961    0F78         0008                  RETURN                        
     3962    0F79         0865                  MOVF 0x65, W                  
     3963    0F7A         0267                  SUBWF 0x67, W                 
     3964    0F7B         0008                  RETURN                        
     3965    0F7C         3F40                  MOVIW [0]FSR1                 
     3966    0F7D         00E3                  MOVWF 0x63                    
     3967    0F7E         3F41                  MOVIW [1]FSR1                 
     3968    0F7F         00E4                  MOVWF 0x64                    
     3969    0F80         0863                  MOVF 0x63, W                  
     3970    0F81         3E91                  ADDLW 0x91                    
     3971    0F82         00E5                  MOVWF 0x65                    
     3972    0F83         30FF                  MOVLW 0xFF                    
     3973    0F84         3D64                  ADDWFC 0x64, W                
     3974    0F85         00E6                  MOVWF 0x66                    
     3975    0F86         355F                  LSLF 0x5F, W                  
     3976    0F87         3E21                  ADDLW 0x21                    
     3977    0F88         0086                  MOVWF FSR1                    
     3978    0F89         0187                  CLRF FSR1H                    
     3979    0F8A         0008                  RETURN                        
     3980    0F8B         0858                  MOVF 0x58, W                  
     3981    0F8C         0021                  MOVLB 0x1                     
     3982    0F8D         00D5                  MOVWF 0xD5                    
     3983    0F8E         0020                  MOVLB 0x0                     
     3984    0F8F         0858                  MOVF 0x58, W                  
     3985    0F90         00DE                  MOVWF 0x5E                    
     3986    0F91         0008                  RETURN                        
     3987    0F92         0086                  MOVWF FSR1                    
     3988    0F93         3001                  MOVLW 0x1                     
     3989    0F94         0087                  MOVWF FSR1H                   
     3990    0F95         3F40                  MOVIW [0]FSR1                 
     3991    0F96         00E3                  MOVWF 0x63                    
     3992    0F97         3F41                  MOVIW [1]FSR1                 
     3993    0F98         00E4                  MOVWF 0x64                    
     3994    0F99         0008                  RETURN                        
     3995    0F9A         3E28                  ADDLW 0x28                    
     3996    0F9B         0086                  MOVWF FSR1                    
     3997    0F9C         3001                  MOVLW 0x1                     
     3998    0F9D         0087                  MOVWF FSR1H                   
     3999    0F9E         0008                  RETURN                        
     4000    0F9F         0021                  MOVLB 0x1                     
     4001    0FA0         00BC                  MOVWF 0xBC                    
     4002    0FA1         0020                  MOVLB 0x0                     
     4003    0FA2         082D                  MOVF 0x2D, W                  
     4004    0FA3         0021                  MOVLB 0x1                     
     4005    0FA4         00BB                  MOVWF 0xBB                    
     4006    0FA5         3091                  MOVLW 0x91                    
     4007    0FA6         07BB                  ADDWF 0xBB, F                 
     4008    0FA7         30FF                  MOVLW 0xFF                    
     4009    0FA8         3DBC                  ADDWFC 0xBC, F                
     4010    0FA9         0008                  RETURN                        
     4011    0FAA         355F                  LSLF 0xDF, W                  
     4012    0FAB         3E38                  ADDLW 0x38                    
     4013    0FAC         0086                  MOVWF 0x86                    
     4014    0FAD         3001                  MOVLW 0x1                     
     4015    0FAE         0087                  MOVWF 0x87                    
     4016    0FAF         0008                  RETURN                        
     4017    0FB0         00E6                  MOVWF 0xE6                    
     4018    0FB1         355F                  LSLF 0xDF, W                  
     4019    0FB2         3E21                  ADDLW 0x21                    
     4020    0FB3         0086                  MOVWF 0x86                    
     4021    0FB4         0008                  RETURN                        
     4022    0FB5         3F40                  MOVIW [0]FSR1                 
     4023    0FB6         00AD                  MOVWF 0xAD                    
     4024    0FB7         3F41                  MOVIW [1]FSR1                 
     4025    0FB8         00AE                  MOVWF 0xAE                    
     4026    0FB9         0008                  RETURN                        
     4027    0FBA         0021                  MOVLB 0x1                     
     4028    0FBB         00BE                  MOVWF 0xBE                    
     4029    0FBC         0020                  MOVLB 0x0                     
     4030    0FBD         0831                  MOVF 0x31, W                  
     4031    0FBE         0021                  MOVLB 0x1                     
     4032    0FBF         00BD                  MOVWF 0xBD                    
     4033    0FC0         306F                  MOVLW 0x6F                    
     4034    0FC1         07BD                  ADDWF 0xBD, F                 
     4035    0FC2         0008                  RETURN                        
     4036    0FC3         3F40                  MOVIW [0]FSR1                 
     4037    0FC4         00B1                  MOVWF 0xB1                    
     4038    0FC5         3F41                  MOVIW [1]FSR1                 
     4039    0FC6         00B2                  MOVWF 0xB2                    
     4040    0FC7         0008                  RETURN                        
     4041    0FC8         3E21                  ADDLW 0x21                    
     4042    0FC9         0086                  MOVWF 0x86                    
     4043    0FCA         0187                  CLRF 0x87                     
     4044    0FCB         0016                  MOVIW FSR1++                  
     4045    0FCC         0401                  IORWF 0x81, W                 
     4046    0FCD         0008                  RETURN                        
     4047    0FCE         0021                  MOVLB 0x1                     
     4048    0FCF         00D5                  MOVWF 0xD5                    
     4049    0FD0         0020                  MOVLB 0x0                     
     4050    0FD1         00DE                  MOVWF 0x5E                    
     4051    0FD2         3030                  MOVLW 0x30                    
     4052    0FD3         00DB                  MOVWF 0x5B                    
     4053    0FD4         0008                  RETURN                        
     4054    0FD5         0021                  MOVLB 0x1                     
     4055    0FD6         00D5                  MOVWF 0xD5                    
     4056    0FD7         0020                  MOVLB 0x0                     
     4057    0FD8         00DE                  MOVWF 0x5E                    
     4058    0FD9         3038                  MOVLW 0x38                    
     4059    0FDA         00DB                  MOVWF 0x5B                    
     4060    0FDB         0008                  RETURN                        
     4061    0FDC         3F40                  MOVIW [0]FSR1                 
     4062    0FDD         00E5                  MOVWF 0x65                    
     4063    0FDE         3F41                  MOVIW [1]FSR1                 
     4064    0FDF         00E6                  MOVWF 0x66                    
     4065    0FE0         0864                  MOVF 0x64, W                  
     4066    0FE1         0266                  SUBWF 0x66, W                 
     4067    0FE2         1D03                  BTFSS STATUS, 0x2             
     4068    0FE3         0008                  RETURN                        
     4069    0FE4         0863                  MOVF 0x63, W                  
     4070    0FE5         0265                  SUBWF 0x65, W                 
     4071    0FE6         0008                  RETURN                        
     4072    0FE7         0020                  MOVLB 0x0                     
     4073    0FE8         0ADB                  INCF 0x5B, F                  
     4074    0FE9         355F                  LSLF 0x5F, W                  
     4075    0FEA         3E21                  ADDLW 0x21                    
     4076    0FEB         0086                  MOVWF FSR1                    
     4077    0FEC         0187                  CLRF FSR1H                    
     4078    0FED         0801                  MOVF INDF1, W                 
     4079    0FEE         00F4                  MOVWF 0x74                    
     4080    0FEF         085B                  MOVF 0x5B, W                  
     4081    0FF0         0008                  RETURN                        
     4082    0FF1         0086                  MOVWF FSR1                    
     4083    0FF2         0187                  CLRF FSR1H                    
     4084    0FF3         0016                  MOVIW FSR1++                  
     4085    0FF4         0401                  IORWF INDF1, W                
     4086    0FF5         0008                  RETURN                        
     4087    0FF6         30FF                  MOVLW 0xFF                    
     4088    0FF7         01D5                  CLRF 0x55                     
     4089    0FF8         0020                  MOVLB 0x0                     
     4090    0FF9         00AD                  MOVWF 0x2D                    
     4091    0FFA         00AE                  MOVWF 0x2E                    
     4092    0FFB         0008                  RETURN                        
     4093    0FFC         01BF                  CLRF 0x3F                     
     4094    0FFD         0AD5                  INCF 0x55, F                  
     4095    0FFE         00CE                  MOVWF 0x4E                    
     4096    0FFF         0008                  RETURN                        
     4097    1000         3180                  MOVLP 0x0                     
     4098    1001         28CC                  GOTO 0xCC                     
     4099    1002         3180                  MOVLP 0x0                     
     4100    1003         28D5                  GOTO 0xD5                     
     4101    1004         3180                  MOVLP 0x0                     
     4102    1005         28DB                  GOTO 0xDB                     
     4103    1006         3180                  MOVLP 0x0                     
     4104    1007         28E1                  GOTO 0xE1                     
     4105    1008         3180                  MOVLP 0x0                     
     4106    1009         28E7                  GOTO 0xE7                     
     4107    100A         3180                  MOVLP 0x0                     
     4108    100B         28ED                  GOTO 0xED                     
     4109    100C         3180                  MOVLP 0x0                     
     4110    100D         28F3                  GOTO 0xF3                     
     4111    100E         3180                  MOVLP 0x0                     
     4112    100F         28F9                  GOTO 0xF9                     
     4113    1010         3180                  MOVLP 0x0                     
     4114    1011         28D4                  GOTO 0xD4                     
     4115    1012         3180                  MOVLP 0x0                     
     4116    1013         28D4                  GOTO 0xD4                     
     4117    1014         3180                  MOVLP 0x0                     
     4118    1015         28D4                  GOTO 0xD4                     
     4119    1016         3180                  MOVLP 0x0                     
     4120    1017         28D4                  GOTO 0xD4                     
     4121    1018         3181                  MOVLP 0x1                     
     4122    1019         290E                  GOTO 0x10E                    
     4123    101A         3181                  MOVLP 0x1                     
     4124    101B         290E                  GOTO 0x10E                    
     4125    101C         3181                  MOVLP 0x1                     
     4126    101D         290E                  GOTO 0x10E                    
     4127    101E         3181                  MOVLP 0x1                     
     4128    101F         290E                  GOTO 0x10E                    
     4129    1020         3181                  MOVLP 0x1                     
     4130    1021         290E                  GOTO 0x10E                    
     4131    1022         3180                  MOVLP 0x0                     
     4132    1023         28D4                  GOTO 0xD4                     
     4133    1024         3182                  MOVLP 0x2                     
     4134    1025         2A98                  GOTO 0x298                    
     4135    1026         3182                  MOVLP 0x2                     
     4136    1027         2A9B                  GOTO 0x29B                    
     4137    1028         3182                  MOVLP 0x2                     
     4138    1029         2A9D                  GOTO 0x29D                    
     4139    102A         3182                  MOVLP 0x2                     
     4140    102B         2A9F                  GOTO 0x29F                    
     4141    102C         3182                  MOVLP 0x2                     
     4142    102D         2AA1                  GOTO 0x2A1                    
     4143    102E         3182                  MOVLP 0x2                     
     4144    102F         2AA3                  GOTO 0x2A3                    
     4145    1030         3182                  MOVLP 0x2                     
     4146    1031         2AA5                  GOTO 0x2A5                    
     4147    1032         3182                  MOVLP 0x2                     
     4148    1033         2AA7                  GOTO 0x2A7                    
     4149    1034         3182                  MOVLP 0x2                     
     4150    1035         2AA9                  GOTO 0x2A9                    
     4151    1036         3182                  MOVLP 0x2                     
     4152    1037         2AAB                  GOTO 0x2AB                    
     4153    1038         3182                  MOVLP 0x2                     
     4154    1039         2AAD                  GOTO 0x2AD                    
     4155    103A         3182                  MOVLP 0x2                     
     4156    103B         2AAF                  GOTO 0x2AF                    
     4157    103C         3182                  MOVLP 0x2                     
     4158    103D         2AB1                  GOTO 0x2B1                    
     4159    103E         3182                  MOVLP 0x2                     
     4160    103F         2AB3                  GOTO 0x2B3                    
     4161    1040         3182                  MOVLP 0x2                     
     4162    1041         2AB5                  GOTO 0x2B5                    
     4163    1042         3182                  MOVLP 0x2                     
     4164    1043         2AB7                  GOTO 0x2B7                    
     4165    1044         3FFF                  MOVWI [-1]FSR1                
     4166    1045         3FFF                  MOVWI [-1]FSR1                
     4167    1046         0064                  CLRWDT                        
     4168    1047         0180                  CLRF INDF0                    
     4169    1048         3101                  ADDFSR 0, 1                   
     4170    1049         0B89                  DECFSZ WREG, F                
     4171    104A         2847                  GOTO 0x47                     
     4172    104B         3400                  RETLW 0x0                     
     4173    104C         342C                  RETLW 0x2C                    
     4174    104D         3438                  RETLW 0x38                    
     4175    104E         3480                  RETLW 0x80                    
     4176    104F         3481                  RETLW 0x81                    
     4177    1050         3408                  RETLW 0x8                     
     4178    1051         34C1                  RETLW 0xC1                    
     4179    1052         3480                  RETLW 0x80                    
     4180    1053         3403                  RETLW 0x3                     
     4181    1054         3450                  RETLW 0x50                    
     4182    1055         3480                  RETLW 0x80                    
     4183    1056         3403                  RETLW 0x3                     
     4184    1057         3411                  RETLW 0x11                    
     4185    1058         3481                  RETLW 0x81                    
     4186    1059         3403                  RETLW 0x3                     
     4187    105A         3492                  RETLW 0x92                    
     4188    105B         3481                  RETLW 0x81                    
     4189    105C         3403                  RETLW 0x3                     
     4190    105D         3480                  RETLW 0x80                    
     4191    105E         3400                  RETLW 0x0                     
     4192    105F         3480                  RETLW 0x80                    
     4193    1060         3408                  RETLW 0x8                     
     4194    1061         34C8                  RETLW 0xC8                    
     4195    1062         3400                  RETLW 0x0                     
     4196    1063         3480                  RETLW 0x80                    
     4197    1064         3400                  RETLW 0x0                     
     4198    1065         3480                  RETLW 0x80                    
     4199    1066         3408                  RETLW 0x8                     
     4200    1067         34C8                  RETLW 0xC8                    
     4201    1068         3400                  RETLW 0x0                     
     4202    1069         3445                  RETLW 0x45                    
     4203    106A         3452                  RETLW 0x52                    
     4204    106B         3401                  RETLW 0x1                     
     4205    106C         3400                  RETLW 0x0                     
     4206    106D         3441                  RETLW 0x41                    
     4207    106E         3402                  RETLW 0x2                     
     4208    106F         3401                  RETLW 0x1                     
     4209    1070         3401                  RETLW 0x1                     
     4210    1071         3400                  RETLW 0x0                     
     4211    1072         3400                  RETLW 0x0                     
     4212    1073         3400                  RETLW 0x0                     
     4213    1074         3400                  RETLW 0x0                     
     4214    1075         3445                  RETLW 0x45                    
     4215    1076         3452                  RETLW 0x52                    
     4216    1077         3401                  RETLW 0x1                     
     4217    1078         3400                  RETLW 0x0                     
     4218    1079         3446                  RETLW 0x46                    
     4219    107A         3403                  RETLW 0x3                     
     4220    107B         3409                  RETLW 0x9                     
     4221    107C         3409                  RETLW 0x9                     
     4222    107D         3400                  RETLW 0x0                     
     4223    107E         3400                  RETLW 0x0                     
     4224    107F         3400                  RETLW 0x0                     
     4225    1080         3400                  RETLW 0x0                     
     4226    1081         3401                  RETLW 0x1                     
     4227    1082         3400                  RETLW 0x0                     
     4228    1083         3411                  RETLW 0x11                    
     4229    1084         3402                  RETLW 0x2                     
     4230    1085         3400                  RETLW 0x0                     
     4231    1086         3450                  RETLW 0x50                    
     4232    1087         3403                  RETLW 0x3                     
     4233    1088         3400                  RETLW 0x0                     
     4234    1089         3492                  RETLW 0x92                    
     4235    108A         3404                  RETLW 0x4                     
     4236    108B         3400                  RETLW 0x0                     
     4237    108C         3411                  RETLW 0x11                    
     4238    108D         3405                  RETLW 0x5                     
     4239    108E         3400                  RETLW 0x0                     
     4240    108F         34C1                  RETLW 0xC1                    
     4241    1090         347D                  RETLW 0x7D                    
     4242    1091         3400                  RETLW 0x0                     
     4243    1092         3400                  RETLW 0x0                     
     4244    1093         3408                  RETLW 0x8                     
     4245    1094         34E8                  RETLW 0xE8                    
     4246    1095         3403                  RETLW 0x3                     
     4247    1096         3411                  RETLW 0x11                    
     4248    1097         3400                  RETLW 0x0                     
     4249    1098         3480                  RETLW 0x80                    
     4250    1099         3403                  RETLW 0x3                     
     4251    109A         3432                  RETLW 0x32                    
     4252    109B         3400                  RETLW 0x0                     
     4253    109C         3450                  RETLW 0x50                    
     4254    109D         3400                  RETLW 0x0                     
     4255    109E         3480                  RETLW 0x80                    
     4256    109F         3403                  RETLW 0x3                     
     4257    10A0         3432                  RETLW 0x32                    
     4258    10A1         3400                  RETLW 0x0                     
     4259    10A2         3450                  RETLW 0x50                    
     4260    10A3         3400                  RETLW 0x0                     
     4261    10A4         3480                  RETLW 0x80                    
     4262    10A5         3403                  RETLW 0x3                     
     4263    10A6         3432                  RETLW 0x32                    
     4264    10A7         3400                  RETLW 0x0                     
     4265    10A8         3450                  RETLW 0x50                    
     4266    10A9         3400                  RETLW 0x0                     
     4267    10AA         3480                  RETLW 0x80                    
     4268    10AB         3403                  RETLW 0x3                     
     4269    10AC         3432                  RETLW 0x32                    
     4270    10AD         3400                  RETLW 0x0                     
     4271    10AE         3450                  RETLW 0x50                    
     4272    10AF         3400                  RETLW 0x0                     
     4273    10B0         3480                  RETLW 0x80                    
     4274    10B1         3403                  RETLW 0x3                     
     4275    10B2         3432                  RETLW 0x32                    
     4276    10B3         3400                  RETLW 0x0                     
     4277    10B4         3450                  RETLW 0x50                    
     4278    10B5         3400                  RETLW 0x0                     
     4279    10B6         3480                  RETLW 0x80                    
     4280    10B7         3403                  RETLW 0x3                     
     4281    10B8         3432                  RETLW 0x32                    
     4282    10B9         3400                  RETLW 0x0                     
     4283    10BA         3450                  RETLW 0x50                    
     4284    10BB         3400                  RETLW 0x0                     
     4285    10BC         3480                  RETLW 0x80                    
     4286    10BD         3403                  RETLW 0x3                     
     4287    10BE         3432                  RETLW 0x32                    
     4288    10BF         3400                  RETLW 0x0                     
     4289    10C0         3450                  RETLW 0x50                    
     4290    10C1         3400                  RETLW 0x0                     
     4291    10C2         3480                  RETLW 0x80                    
     4292    10C3         3403                  RETLW 0x3                     
     4293    10C4         3432                  RETLW 0x32                    
     4294    10C5         3400                  RETLW 0x0                     
     4295    10C6         3450                  RETLW 0x50                    
     4296    10C7         3400                  RETLW 0x0                     
     4297    10C8         3480                  RETLW 0x80                    
     4298    10C9         3403                  RETLW 0x3                     
     4299    10CA         3432                  RETLW 0x32                    
     4300    10CB         3400                  RETLW 0x0                     
     4301    10CC         34C1                  RETLW 0xC1                    
     4302    10CD         3400                  RETLW 0x0                     
     4303    10CE         3480                  RETLW 0x80                    
     4304    10CF         3403                  RETLW 0x3                     
     4305    10D0         3432                  RETLW 0x32                    
     4306    10D1         3400                  RETLW 0x0                     
     4307    10D2         3492                  RETLW 0x92                    
     4308    10D3         3400                  RETLW 0x0                     
     4309    10D4         3480                  RETLW 0x80                    
     4310    10D5         3403                  RETLW 0x3                     
     4311    10D6         34F4                  RETLW 0xF4                    
     4312    10D7         3401                  RETLW 0x1                     
     4313    10D8         0021                  MOVLB 0x1                     
     4314    10D9         086E                  MOVF 0xEE, W                  
     4315    10DA         3EFF                  ADDLW 0xFF                    
     4316    10DB         1C03                  BTFSS 0x83, 0x0               
     4317    10DC         0008                  RETURN                        
     4318    10DD         0084                  MOVWF 0x84                    
     4319    10DE         3022                  MOVLW 0x22                    
     4320    10DF         0204                  SUBWF 0x84, W                 
     4321    10E0         1803                  BTFSC 0x83, 0x0               
     4322    10E1         0008                  RETURN                        
     4323    10E2         3187                  MOVLP 0x7                     
     4324    10E3         3504                  LSLF 0x84, W                  
     4325    10E4         3EAD                  ADDLW 0xAD                    
     4326    10E5         0082                  MOVWF 0x82                    
     4327    10E6         0008                  RETURN                        
     4328    10E7         0020                  MOVLB 0x0                     
     4329    10E8         0820                  MOVF 0x20, W                  
     4330    10E9         3A0A                  XORLW 0xA                     
     4331    10EA         1D03                  BTFSS STATUS, 0x2             
     4332    10EB         0008                  RETURN                        
     4333    10EC         08C5                  MOVF 0x45, F                  
     4334    10ED         1D03                  BTFSS STATUS, 0x2             
     4335    10EE         0008                  RETURN                        
     4336    10EF         3002                  MOVLW 0x2                     
     4337    10F0         1047                  BCF 0x47, 0x0                 
     4338    10F1         0021                  MOVLB 0x1                     
     4339    10F2         00EE                  MOVWF 0xEE                    
     4340    10F3         0AD1                  INCF 0xD1, F                  
     4341    10F4         0008                  RETURN                        
     4342    10F5         30FF                  MOVLW 0xFF                    
     4343    10F6         00DF                  MOVWF 0xDF                    
     4344    10F7         0020                  MOVLB 0x0                     
     4345    10F8         01D2                  CLRF 0x52                     
     4346    10F9         00AD                  MOVWF 0x2D                    
     4347    10FA         00AE                  MOVWF 0x2E                    
     4348    10FB         0022                  MOVLB 0x2                     
     4349    10FC         00CD                  MOVWF 0x14D                   
     4350    10FD         00CE                  MOVWF 0x14E                   
     4351    10FE         0020                  MOVLB 0x0                     
     4352    10FF         3004                  MOVLW 0x4                     
     4353    1100         01E0                  CLRF 0x60                     
     4354    1101         0260                  SUBWF 0x60, W                 
     4355    1102         1803                  BTFSC STATUS, 0x0             
     4356    1103         290B                  GOTO 0x10B                    
     4357    1104         3560                  LSLF 0x60, W                  
     4358    1105         3E30                  ADDLW 0x30                    
     4359    1106         2410                  CALL 0x410                    
     4360    1107         3190                  MOVLP 0x10                    
     4361    1108         3004                  MOVLW 0x4                     
     4362    1109         0AE0                  INCF 0x60, F                  
     4363    110A         2901                  GOTO 0x101                    
     4364    110B         01E0                  CLRF 0x60                     
     4365    110C         3004                  MOVLW 0x4                     
     4366    110D         0260                  SUBWF 0x60, W                 
     4367    110E         1803                  BTFSC STATUS, 0x0             
     4368    110F         2916                  GOTO 0x116                    
     4369    1110         3560                  LSLF 0x60, W                  
     4370    1111         3E28                  ADDLW 0x28                    
     4371    1112         2410                  CALL 0x410                    
     4372    1113         3190                  MOVLP 0x10                    
     4373    1114         0AE0                  INCF 0x60, F                  
     4374    1115         290C                  GOTO 0x10C                    
     4375    1116         01B1                  CLRF 0x31                     
     4376    1117         01B2                  CLRF 0x32                     
     4377    1118         0022                  MOVLB 0x2                     
     4378    1119         01CF                  CLRF 0x14F                    
     4379    111A         01D0                  CLRF 0x150                    
     4380    111B         0020                  MOVLB 0x0                     
     4381    111C         01E0                  CLRF 0x60                     
     4382    111D         3004                  MOVLW 0x4                     
     4383    111E         0260                  SUBWF 0x60, W                 
     4384    111F         1803                  BTFSC STATUS, 0x0             
     4385    1120         2928                  GOTO 0x128                    
     4386    1121         3560                  LSLF 0x60, W                  
     4387    1122         3ED2                  ADDLW 0xD2                    
     4388    1123         0086                  MOVWF FSR1                    
     4389    1124         3001                  MOVLW 0x1                     
     4390    1125         2423                  CALL 0x423                    
     4391    1126         3190                  MOVLP 0x10                    
     4392    1127         291D                  GOTO 0x11D                    
     4393    1128         01E0                  CLRF 0x60                     
     4394    1129         3004                  MOVLW 0x4                     
     4395    112A         0260                  SUBWF 0x60, W                 
     4396    112B         1803                  BTFSC STATUS, 0x0             
     4397    112C         2934                  GOTO 0x134                    
     4398    112D         3560                  LSLF 0x60, W                  
     4399    112E         3E38                  ADDLW 0x38                    
     4400    112F         0086                  MOVWF FSR1                    
     4401    1130         3001                  MOVLW 0x1                     
     4402    1131         2423                  CALL 0x423                    
     4403    1132         3190                  MOVLP 0x10                    
     4404    1133         2929                  GOTO 0x129                    
     4405    1134         3003                  MOVLW 0x3                     
     4406    1135         0021                  MOVLB 0x1                     
     4407    1136         00EE                  MOVWF 0xEE                    
     4408    1137         0008                  RETURN                        
     4409    1138         3007                  MOVLW 0x7                     
     4410    1139         00E0                  MOVWF 0xE0                    
     4411    113A         0020                  MOVLB 0x0                     
     4412    113B         3002                  MOVLW 0x2                     
     4413    113C         01C5                  CLRF 0x45                     
     4414    113D         0AC5                  INCF 0x45, F                  
     4415    113E         0021                  MOVLB 0x1                     
     4416    113F         0251                  SUBWF 0xD1, W                 
     4417    1140         1C03                  BTFSS 0x83, 0x0               
     4418    1141         2945                  GOTO 0x145                    
     4419    1142         3004                  MOVLW 0x4                     
     4420    1143         00EE                  MOVWF 0xEE                    
     4421    1144         0008                  RETURN                        
     4422    1145         0021                  MOVLB 0x1                     
     4423    1146         01EE                  CLRF 0xEE                     
     4424    1147         0AEE                  INCF 0xEE, F                  
     4425    1148         0008                  RETURN                        
     4426    1149         30D0                  MOVLW 0xD0                    
     4427    114A         00DF                  MOVWF 0xDF                    
     4428    114B         3004                  MOVLW 0x4                     
     4429    114C         00EE                  MOVWF 0xEE                    
     4430    114D         0008                  RETURN                        
     4431    114E         0020                  MOVLB 0x0                     
     4432    114F         08C5                  MOVF 0x45, F                  
     4433    1150         1D03                  BTFSS STATUS, 0x2             
     4434    1151         0008                  RETURN                        
     4435    1152         0021                  MOVLB 0x1                     
     4436    1153         3007                  MOVLW 0x7                     
     4437    1154         01E0                  CLRF 0xE0                     
     4438    1155         0AE0                  INCF 0xE0, F                  
     4439    1156         00E1                  MOVWF 0xE1                    
     4440    1157         0020                  MOVLB 0x0                     
     4441    1158         3005                  MOVLW 0x5                     
     4442    1159         01C5                  CLRF 0x45                     
     4443    115A         0AC5                  INCF 0x45, F                  
     4444    115B         0021                  MOVLB 0x1                     
     4445    115C         00EE                  MOVWF 0xEE                    
     4446    115D         0008                  RETURN                        
     4447    115E         0020                  MOVLB 0x0                     
     4448    115F         08C5                  MOVF 0x45, F                  
     4449    1160         1D03                  BTFSS STATUS, 0x2             
     4450    1161         0008                  RETURN                        
     4451    1162         30D0                  MOVLW 0xD0                    
     4452    1163         0021                  MOVLB 0x1                     
     4453    1164         00DF                  MOVWF 0xDF                    
     4454    1165         3006                  MOVLW 0x6                     
     4455    1166         00EE                  MOVWF 0xEE                    
     4456    1167         0008                  RETURN                        
     4457    1168         3002                  MOVLW 0x2                     
     4458    1169         00E0                  MOVWF 0xE0                    
     4459    116A         0020                  MOVLB 0x0                     
     4460    116B         3007                  MOVLW 0x7                     
     4461    116C         01C5                  CLRF 0x45                     
     4462    116D         0AC5                  INCF 0x45, F                  
     4463    116E         1047                  BCF 0x47, 0x0                 
     4464    116F         0021                  MOVLB 0x1                     
     4465    1170         00EE                  MOVWF 0xEE                    
     4466    1171         0008                  RETURN                        
     4467    1172         0020                  MOVLB 0x0                     
     4468    1173         08C5                  MOVF 0x45, F                  
     4469    1174         1D03                  BTFSS STATUS, 0x2             
     4470    1175         0008                  RETURN                        
     4471    1176         0854                  MOVF 0x54, W                  
     4472    1177         3A02                  XORLW 0x2                     
     4473    1178         1D03                  BTFSS STATUS, 0x2             
     4474    1179         0008                  RETURN                        
     4475    117A         3002                  MOVLW 0x2                     
     4476    117B         00D1                  MOVWF 0x51                    
     4477    117C         3008                  MOVLW 0x8                     
     4478    117D         01D3                  CLRF 0x53                     
     4479    117E         0021                  MOVLB 0x1                     
     4480    117F         00EE                  MOVWF 0xEE                    
     4481    1180         01DA                  CLRF 0xDA                     
     4482    1181         0020                  MOVLB 0x0                     
     4483    1182         01BB                  CLRF 0x3B                     
     4484    1183         0ABB                  INCF 0x3B, F                  
     4485    1184         0008                  RETURN                        
     4486    1185         0020                  MOVLB 0x0                     
     4487    1186         083B                  MOVF 0x3B, W                  
     4488    1187         3A02                  XORLW 0x2                     
     4489    1188         1D03                  BTFSS STATUS, 0x2             
     4490    1189         2992                  GOTO 0x192                    
     4491    118A         0021                  MOVLB 0x1                     
     4492    118B         01DA                  CLRF 0xDA                     
     4493    118C         0020                  MOVLB 0x0                     
     4494    118D         01BB                  CLRF 0x3B                     
     4495    118E         3009                  MOVLW 0x9                     
     4496    118F         0021                  MOVLB 0x1                     
     4497    1190         00EE                  MOVWF 0xEE                    
     4498    1191         0008                  RETURN                        
     4499    1192         300A                  MOVLW 0xA                     
     4500    1193         0253                  SUBWF 0xD3, W                 
     4501    1194         1C03                  BTFSS 0x83, 0x0               
     4502    1195         299B                  GOTO 0x19B                    
     4503    1196         301F                  MOVLW 0x1F                    
     4504    1197         0021                  MOVLB 0x1                     
     4505    1198         00EE                  MOVWF 0xEE                    
     4506    1199         0021                  MOVLB 0x1                     
     4507    119A         2C29                  GOTO 0x429                    
     4508    119B         0851                  MOVF 0xD1, W                  
     4509    119C         3A04                  XORLW 0x4                     
     4510    119D         1D03                  BTFSS 0x83, 0x2               
     4511    119E         29A1                  GOTO 0x1A1                    
     4512    119F         0AD3                  INCF 0xD3, F                  
     4513    11A0         298E                  GOTO 0x18E                    
     4514    11A1         0AD3                  INCF 0xD3, F                  
     4515    11A2         0008                  RETURN                        
     4516    11A3         0020                  MOVLB 0x0                     
     4517    11A4         01D1                  CLRF 0x51                     
     4518    11A5         1C47                  BTFSS 0x47, 0x0               
     4519    11A6         29B0                  GOTO 0x1B0                    
     4520    11A7         1047                  BCF 0x47, 0x0                 
     4521    11A8         0021                  MOVLB 0x1                     
     4522    11A9         01DA                  CLRF 0xDA                     
     4523    11AA         0020                  MOVLB 0x0                     
     4524    11AB         3017                  MOVLW 0x17                    
     4525    11AC         01BB                  CLRF 0x3B                     
     4526    11AD         0021                  MOVLB 0x1                     
     4527    11AE         00EE                  MOVWF 0xEE                    
     4528    11AF         0008                  RETURN                        
     4529    11B0         300A                  MOVLW 0xA                     
     4530    11B1         0253                  SUBWF 0xD3, W                 
     4531    11B2         1C03                  BTFSS 0x83, 0x0               
     4532    11B3         29A1                  GOTO 0x1A1                    
     4533    11B4         300A                  MOVLW 0xA                     
     4534    11B5         2997                  GOTO 0x197                    
     4535    11B6         0020                  MOVLB 0x0                     
     4536    11B7         08C5                  MOVF 0x45, F                  
     4537    11B8         1D03                  BTFSS STATUS, 0x2             
     4538    11B9         0008                  RETURN                        
     4539    11BA         3006                  MOVLW 0x6                     
     4540    11BB         0021                  MOVLB 0x1                     
     4541    11BC         00E0                  MOVWF 0xE0                    
     4542    11BD         3009                  MOVLW 0x9                     
     4543    11BE         00E1                  MOVWF 0xE1                    
     4544    11BF         3018                  MOVLW 0x18                    
     4545    11C0         01E2                  CLRF 0xE2                     
     4546    11C1         00EE                  MOVWF 0xEE                    
     4547    11C2         0020                  MOVLB 0x0                     
     4548    11C3         01C5                  CLRF 0x45                     
     4549    11C4         0AC5                  INCF 0x45, F                  
     4550    11C5         0008                  RETURN                        
     4551    11C6         0020                  MOVLB 0x0                     
     4552    11C7         08C5                  MOVF 0x45, F                  
     4553    11C8         1D03                  BTFSS STATUS, 0x2             
     4554    11C9         0008                  RETURN                        
     4555    11CA         0854                  MOVF 0x54, W                  
     4556    11CB         3A02                  XORLW 0x2                     
     4557    11CC         1D03                  BTFSS STATUS, 0x2             
     4558    11CD         0008                  RETURN                        
     4559    11CE         01D3                  CLRF 0x53                     
     4560    11CF         0021                  MOVLB 0x1                     
     4561    11D0         01DA                  CLRF 0xDA                     
     4562    11D1         0020                  MOVLB 0x0                     
     4563    11D2         3019                  MOVLW 0x19                    
     4564    11D3         2C0B                  GOTO 0x40B                    
     4565    11D4         0020                  MOVLB 0x0                     
     4566    11D5         083B                  MOVF 0x3B, W                  
     4567    11D6         3A02                  XORLW 0x2                     
     4568    11D7         1D03                  BTFSS STATUS, 0x2             
     4569    11D8         29DE                  GOTO 0x1DE                    
     4570    11D9         0021                  MOVLB 0x1                     
     4571    11DA         01DA                  CLRF 0xDA                     
     4572    11DB         0020                  MOVLB 0x0                     
     4573    11DC         01BB                  CLRF 0x3B                     
     4574    11DD         2945                  GOTO 0x145                    
     4575    11DE         300A                  MOVLW 0xA                     
     4576    11DF         0253                  SUBWF 0x53, W                 
     4577    11E0         1C03                  BTFSS STATUS, 0x0             
     4578    11E1         29E6                  GOTO 0x1E6                    
     4579    11E2         0021                  MOVLB 0x1                     
     4580    11E3         01EE                  CLRF 0xEE                     
     4581    11E4         0AEE                  INCF 0xEE, F                  
     4582    11E5         2C29                  GOTO 0x429                    
     4583    11E6         0851                  MOVF 0xD1, W                  
     4584    11E7         3A04                  XORLW 0x4                     
     4585    11E8         1D03                  BTFSS 0x83, 0x2               
     4586    11E9         29EF                  GOTO 0x1EF                    
     4587    11EA         01D1                  CLRF 0xD1                     
     4588    11EB         300A                  MOVLW 0xA                     
     4589    11EC         0021                  MOVLB 0x1                     
     4590    11ED         00EE                  MOVWF 0xEE                    
     4591    11EE         0008                  RETURN                        
     4592    11EF         1C47                  BTFSS 0xC7, 0x0               
     4593    11F0         29A1                  GOTO 0x1A1                    
     4594    11F1         0022                  MOVLB 0x2                     
     4595    11F2         0851                  MOVF 0x151, W                 
     4596    11F3         3A09                  XORLW 0x9                     
     4597    11F4         1903                  BTFSC 0x103, 0x2              
     4598    11F5         2A11                  GOTO 0x211                    
     4599    11F6         2A1E                  GOTO 0x21E                    
     4600    11F7         2404                  CALL 0x404                    
     4601    11F8         3190                  MOVLP 0x10                    
     4602    11F9         3002                  MOVLW 0x2                     
     4603    11FA         0081                  MOVWF 0x101                   
     4604    11FB         01E0                  CLRF 0x160                    
     4605    11FC         0AE0                  INCF 0x160, F                 
     4606    11FD         2A1C                  GOTO 0x21C                    
     4607    11FE         2404                  CALL 0x404                    
     4608    11FF         3190                  MOVLP 0x10                    
     4609    1200         3004                  MOVLW 0x4                     
     4610    1201         0081                  MOVWF 0x101                   
     4611    1202         3002                  MOVLW 0x2                     
     4612    1203         2A09                  GOTO 0x209                    
     4613    1204         2404                  CALL 0x404                    
     4614    1205         3190                  MOVLP 0x10                    
     4615    1206         3008                  MOVLW 0x8                     
     4616    1207         0081                  MOVWF 0x101                   
     4617    1208         3003                  MOVLW 0x3                     
     4618    1209         00E0                  MOVWF 0x160                   
     4619    120A         2A1C                  GOTO 0x21C                    
     4620    120B         2404                  CALL 0x404                    
     4621    120C         3190                  MOVLP 0x10                    
     4622    120D         0181                  CLRF 0x101                    
     4623    120E         0A81                  INCF 0x101, F                 
     4624    120F         01E0                  CLRF 0x160                    
     4625    1210         2A1C                  GOTO 0x21C                    
     4626    1211         0852                  MOVF 0x152, W                 
     4627    1212         3A02                  XORLW 0x2                     
     4628    1213         1903                  BTFSC 0x103, 0x2              
     4629    1214         29F7                  GOTO 0x1F7                    
     4630    1215         3A01                  XORLW 0x1                     
     4631    1216         1903                  BTFSC 0x103, 0x2              
     4632    1217         29FE                  GOTO 0x1FE                    
     4633    1218         3A07                  XORLW 0x7                     
     4634    1219         1903                  BTFSC 0x103, 0x2              
     4635    121A         2A04                  GOTO 0x204                    
     4636    121B         2A0B                  GOTO 0x20B                    
     4637    121C         300B                  MOVLW 0xB                     
     4638    121D         2A1F                  GOTO 0x21F                    
     4639    121E         300A                  MOVLW 0xA                     
     4640    121F         0021                  MOVLB 0x1                     
     4641    1220         00EE                  MOVWF 0xEE                    
     4642    1221         0020                  MOVLB 0x0                     
     4643    1222         1047                  BCF 0x47, 0x0                 
     4644    1223         2999                  GOTO 0x199                    
     4645    1224         0020                  MOVLB 0x0                     
     4646    1225         08C5                  MOVF 0x45, F                  
     4647    1226         1D03                  BTFSS STATUS, 0x2             
     4648    1227         0008                  RETURN                        
     4649    1228         3006                  MOVLW 0x6                     
     4650    1229         0021                  MOVLB 0x1                     
     4651    122A         00E0                  MOVWF 0xE0                    
     4652    122B         300C                  MOVLW 0xC                     
     4653    122C         00E1                  MOVWF 0xE1                    
     4654    122D         29C0                  GOTO 0x1C0                    
     4655    122E         0020                  MOVLB 0x0                     
     4656    122F         08C5                  MOVF 0x45, F                  
     4657    1230         1D03                  BTFSS STATUS, 0x2             
     4658    1231         0008                  RETURN                        
     4659    1232         0854                  MOVF 0x54, W                  
     4660    1233         3A02                  XORLW 0x2                     
     4661    1234         1D03                  BTFSS STATUS, 0x2             
     4662    1235         0008                  RETURN                        
     4663    1236         01D3                  CLRF 0x53                     
     4664    1237         0021                  MOVLB 0x1                     
     4665    1238         01DA                  CLRF 0xDA                     
     4666    1239         0020                  MOVLB 0x0                     
     4667    123A         300D                  MOVLW 0xD                     
     4668    123B         2C0B                  GOTO 0x40B                    
     4669    123C         0020                  MOVLB 0x0                     
     4670    123D         083B                  MOVF 0x3B, W                  
     4671    123E         3A02                  XORLW 0x2                     
     4672    123F         1903                  BTFSC STATUS, 0x2             
     4673    1240         29D9                  GOTO 0x1D9                    
     4674    1241         300A                  MOVLW 0xA                     
     4675    1242         0253                  SUBWF 0x53, W                 
     4676    1243         1803                  BTFSC STATUS, 0x0             
     4677    1244         29E2                  GOTO 0x1E2                    
     4678    1245         0851                  MOVF 0x51, W                  
     4679    1246         3A04                  XORLW 0x4                     
     4680    1247         1903                  BTFSC STATUS, 0x2             
     4681    1248         29EA                  GOTO 0x1EA                    
     4682    1249         1C47                  BTFSS 0x47, 0x0               
     4683    124A         29A1                  GOTO 0x1A1                    
     4684    124B         0022                  MOVLB 0x2                     
     4685    124C         0851                  MOVF 0x151, W                 
     4686    124D         3A0C                  XORLW 0xC                     
     4687    124E         1D03                  BTFSS 0x103, 0x2              
     4688    124F         2A1E                  GOTO 0x21E                    
     4689    1250         0852                  MOVF 0x152, W                 
     4690    1251         0020                  MOVLB 0x0                     
     4691    1252         00BA                  MOVWF 0x3A                    
     4692    1253         300E                  MOVLW 0xE                     
     4693    1254         2AED                  GOTO 0x2ED                    
     4694    1255         0020                  MOVLB 0x0                     
     4695    1256         08C5                  MOVF 0x45, F                  
     4696    1257         1D03                  BTFSS STATUS, 0x2             
     4697    1258         0008                  RETURN                        
     4698    1259         3006                  MOVLW 0x6                     
     4699    125A         0021                  MOVLB 0x1                     
     4700    125B         00E0                  MOVWF 0xE0                    
     4701    125C         300D                  MOVLW 0xD                     
     4702    125D         00E1                  MOVWF 0xE1                    
     4703    125E         300F                  MOVLW 0xF                     
     4704    125F         29C0                  GOTO 0x1C0                    
     4705    1260         0020                  MOVLB 0x0                     
     4706    1261         08C5                  MOVF 0x45, F                  
     4707    1262         1D03                  BTFSS STATUS, 0x2             
     4708    1263         0008                  RETURN                        
     4709    1264         0854                  MOVF 0x54, W                  
     4710    1265         3A02                  XORLW 0x2                     
     4711    1266         1D03                  BTFSS STATUS, 0x2             
     4712    1267         0008                  RETURN                        
     4713    1268         01D3                  CLRF 0x53                     
     4714    1269         0021                  MOVLB 0x1                     
     4715    126A         01DA                  CLRF 0xDA                     
     4716    126B         0020                  MOVLB 0x0                     
     4717    126C         3010                  MOVLW 0x10                    
     4718    126D         2C0B                  GOTO 0x40B                    
     4719    126E         0020                  MOVLB 0x0                     
     4720    126F         083B                  MOVF 0x3B, W                  
     4721    1270         3A02                  XORLW 0x2                     
     4722    1271         1903                  BTFSC STATUS, 0x2             
     4723    1272         29D9                  GOTO 0x1D9                    
     4724    1273         300A                  MOVLW 0xA                     
     4725    1274         0253                  SUBWF 0x53, W                 
     4726    1275         1803                  BTFSC STATUS, 0x0             
     4727    1276         29E2                  GOTO 0x1E2                    
     4728    1277         0851                  MOVF 0x51, W                  
     4729    1278         3A04                  XORLW 0x4                     
     4730    1279         1903                  BTFSC STATUS, 0x2             
     4731    127A         29EA                  GOTO 0x1EA                    
     4732    127B         1C47                  BTFSS 0x47, 0x0               
     4733    127C         29A1                  GOTO 0x1A1                    
     4734    127D         0022                  MOVLB 0x2                     
     4735    127E         0851                  MOVF 0x151, W                 
     4736    127F         3A0D                  XORLW 0xD                     
     4737    1280         1D03                  BTFSS 0x103, 0x2              
     4738    1281         2A1E                  GOTO 0x21E                    
     4739    1282         0852                  MOVF 0x152, W                 
     4740    1283         0020                  MOVLB 0x0                     
     4741    1284         07B9                  ADDWF 0x39, F                 
     4742    1285         1803                  BTFSC STATUS, 0x0             
     4743    1286         0ABA                  INCF 0x3A, F                  
     4744    1287         0022                  MOVLB 0x2                     
     4745    1288         084E                  MOVF 0x14E, W                 
     4746    1289         0020                  MOVLB 0x0                     
     4747    128A         023A                  SUBWF 0x3A, W                 
     4748    128B         1D03                  BTFSS STATUS, 0x2             
     4749    128C         2A91                  GOTO 0x291                    
     4750    128D         0022                  MOVLB 0x2                     
     4751    128E         084D                  MOVF 0x14D, W                 
     4752    128F         0020                  MOVLB 0x0                     
     4753    1290         0239                  SUBWF 0x39, W                 
     4754    1291         1803                  BTFSC STATUS, 0x0             
     4755    1292         2AA6                  GOTO 0x2A6                    
     4756    1293         083A                  MOVF 0x3A, W                  
     4757    1294         0022                  MOVLB 0x2                     
     4758    1295         00CE                  MOVWF 0x14E                   
     4759    1296         0020                  MOVLB 0x0                     
     4760    1297         0839                  MOVF 0x39, W                  
     4761    1298         0022                  MOVLB 0x2                     
     4762    1299         00CD                  MOVWF 0x14D                   
     4763    129A         0020                  MOVLB 0x0                     
     4764    129B         083A                  MOVF 0x3A, W                  
     4765    129C         0021                  MOVLB 0x1                     
     4766    129D         00BC                  MOVWF 0xBC                    
     4767    129E         0020                  MOVLB 0x0                     
     4768    129F         0839                  MOVF 0x39, W                  
     4769    12A0         0021                  MOVLB 0x1                     
     4770    12A1         00BB                  MOVWF 0xBB                    
     4771    12A2         30B8                  MOVLW 0xB8                    
     4772    12A3         07BB                  ADDWF 0xBB, F                 
     4773    12A4         30FF                  MOVLW 0xFF                    
     4774    12A5         3DBC                  ADDWFC 0xBC, F                
     4775    12A6         0020                  MOVLB 0x0                     
     4776    12A7         3560                  LSLF 0x60, W                  
     4777    12A8         3E30                  ADDLW 0x30                    
     4778    12A9         0086                  MOVWF FSR1                    
     4779    12AA         3001                  MOVLW 0x1                     
     4780    12AB         241D                  CALL 0x41D                    
     4781    12AC         3190                  MOVLP 0x10                    
     4782    12AD         023A                  SUBWF 0x3A, W                 
     4783    12AE         1D03                  BTFSS STATUS, 0x2             
     4784    12AF         2AB2                  GOTO 0x2B2                    
     4785    12B0         0863                  MOVF 0x63, W                  
     4786    12B1         0239                  SUBWF 0x39, W                 
     4787    12B2         1803                  BTFSC STATUS, 0x0             
     4788    12B3         2ABA                  GOTO 0x2BA                    
     4789    12B4         3560                  LSLF 0x60, W                  
     4790    12B5         3E30                  ADDLW 0x30                    
     4791    12B6         0086                  MOVWF FSR1                    
     4792    12B7         3001                  MOVLW 0x1                     
     4793    12B8         2417                  CALL 0x417                    
     4794    12B9         3190                  MOVLP 0x10                    
     4795    12BA         3011                  MOVLW 0x11                    
     4796    12BB         2A1F                  GOTO 0x21F                    
     4797    12BC         0020                  MOVLB 0x0                     
     4798    12BD         08C5                  MOVF 0x45, F                  
     4799    12BE         1D03                  BTFSS STATUS, 0x2             
     4800    12BF         0008                  RETURN                        
     4801    12C0         3006                  MOVLW 0x6                     
     4802    12C1         0021                  MOVLB 0x1                     
     4803    12C2         00E0                  MOVWF 0xE0                    
     4804    12C3         300A                  MOVLW 0xA                     
     4805    12C4         00E1                  MOVWF 0xE1                    
     4806    12C5         3012                  MOVLW 0x12                    
     4807    12C6         29C0                  GOTO 0x1C0                    
     4808    12C7         0020                  MOVLB 0x0                     
     4809    12C8         08C5                  MOVF 0x45, F                  
     4810    12C9         1D03                  BTFSS STATUS, 0x2             
     4811    12CA         0008                  RETURN                        
     4812    12CB         0854                  MOVF 0x54, W                  
     4813    12CC         3A02                  XORLW 0x2                     
     4814    12CD         1D03                  BTFSS STATUS, 0x2             
     4815    12CE         0008                  RETURN                        
     4816    12CF         01D3                  CLRF 0x53                     
     4817    12D0         0021                  MOVLB 0x1                     
     4818    12D1         01DA                  CLRF 0xDA                     
     4819    12D2         0020                  MOVLB 0x0                     
     4820    12D3         3013                  MOVLW 0x13                    
     4821    12D4         2C0B                  GOTO 0x40B                    
     4822    12D5         0020                  MOVLB 0x0                     
     4823    12D6         083B                  MOVF 0x3B, W                  
     4824    12D7         3A02                  XORLW 0x2                     
     4825    12D8         1903                  BTFSC STATUS, 0x2             
     4826    12D9         29D9                  GOTO 0x1D9                    
     4827    12DA         300A                  MOVLW 0xA                     
     4828    12DB         0253                  SUBWF 0x53, W                 
     4829    12DC         1803                  BTFSC STATUS, 0x0             
     4830    12DD         29E2                  GOTO 0x1E2                    
     4831    12DE         0851                  MOVF 0x51, W                  
     4832    12DF         3A04                  XORLW 0x4                     
     4833    12E0         1903                  BTFSC STATUS, 0x2             
     4834    12E1         29EA                  GOTO 0x1EA                    
     4835    12E2         1C47                  BTFSS 0x47, 0x0               
     4836    12E3         29A1                  GOTO 0x1A1                    
     4837    12E4         0022                  MOVLB 0x2                     
     4838    12E5         0851                  MOVF 0x151, W                 
     4839    12E6         3A0A                  XORLW 0xA                     
     4840    12E7         1D03                  BTFSS 0x103, 0x2              
     4841    12E8         2A1E                  GOTO 0x21E                    
     4842    12E9         0852                  MOVF 0x152, W                 
     4843    12EA         0020                  MOVLB 0x0                     
     4844    12EB         00BA                  MOVWF 0x3A                    
     4845    12EC         3014                  MOVLW 0x14                    
     4846    12ED         01B9                  CLRF 0x39                     
     4847    12EE         2A1F                  GOTO 0x21F                    
     4848    12EF         0020                  MOVLB 0x0                     
     4849    12F0         08C5                  MOVF 0x45, F                  
     4850    12F1         1D03                  BTFSS STATUS, 0x2             
     4851    12F2         0008                  RETURN                        
     4852    12F3         3006                  MOVLW 0x6                     
     4853    12F4         0021                  MOVLB 0x1                     
     4854    12F5         00E0                  MOVWF 0xE0                    
     4855    12F6         300B                  MOVLW 0xB                     
     4856    12F7         00E1                  MOVWF 0xE1                    
     4857    12F8         3015                  MOVLW 0x15                    
     4858    12F9         29C0                  GOTO 0x1C0                    
     4859    12FA         0020                  MOVLB 0x0                     
     4860    12FB         08C5                  MOVF 0x45, F                  
     4861    12FC         1D03                  BTFSS STATUS, 0x2             
     4862    12FD         0008                  RETURN                        
     4863    12FE         0854                  MOVF 0x54, W                  
     4864    12FF         3A02                  XORLW 0x2                     
     4865    1300         1D03                  BTFSS STATUS, 0x2             
     4866    1301         0008                  RETURN                        
     4867    1302         01D3                  CLRF 0x53                     
     4868    1303         0021                  MOVLB 0x1                     
     4869    1304         01DA                  CLRF 0xDA                     
     4870    1305         0020                  MOVLB 0x0                     
     4871    1306         3016                  MOVLW 0x16                    
     4872    1307         2C0B                  GOTO 0x40B                    
     4873    1308         0020                  MOVLB 0x0                     
     4874    1309         083B                  MOVF 0x3B, W                  
     4875    130A         3A02                  XORLW 0x2                     
     4876    130B         1903                  BTFSC STATUS, 0x2             
     4877    130C         29D9                  GOTO 0x1D9                    
     4878    130D         300A                  MOVLW 0xA                     
     4879    130E         0253                  SUBWF 0x53, W                 
     4880    130F         1803                  BTFSC STATUS, 0x0             
     4881    1310         29E2                  GOTO 0x1E2                    
     4882    1311         0851                  MOVF 0x51, W                  
     4883    1312         3A04                  XORLW 0x4                     
     4884    1313         1903                  BTFSC STATUS, 0x2             
     4885    1314         29EA                  GOTO 0x1EA                    
     4886    1315         1C47                  BTFSS 0x47, 0x0               
     4887    1316         29A1                  GOTO 0x1A1                    
     4888    1317         0022                  MOVLB 0x2                     
     4889    1318         0851                  MOVF 0x151, W                 
     4890    1319         3A0B                  XORLW 0xB                     
     4891    131A         1D03                  BTFSS 0x103, 0x2              
     4892    131B         2A1E                  GOTO 0x21E                    
     4893    131C         0852                  MOVF 0x152, W                 
     4894    131D         0020                  MOVLB 0x0                     
     4895    131E         07B9                  ADDWF 0x39, F                 
     4896    131F         1803                  BTFSC STATUS, 0x0             
     4897    1320         0ABA                  INCF 0x3A, F                  
     4898    1321         083A                  MOVF 0x3A, W                  
     4899    1322         0022                  MOVLB 0x2                     
     4900    1323         0250                  SUBWF 0x150, W                
     4901    1324         1D03                  BTFSS 0x103, 0x2              
     4902    1325         2B2A                  GOTO 0x32A                    
     4903    1326         0020                  MOVLB 0x0                     
     4904    1327         0839                  MOVF 0x39, W                  
     4905    1328         0022                  MOVLB 0x2                     
     4906    1329         024F                  SUBWF 0x14F, W                
     4907    132A         1803                  BTFSC 0x103, 0x0              
     4908    132B         2B40                  GOTO 0x340                    
     4909    132C         0020                  MOVLB 0x0                     
     4910    132D         083A                  MOVF 0x3A, W                  
     4911    132E         0022                  MOVLB 0x2                     
     4912    132F         00D0                  MOVWF 0x150                   
     4913    1330         0020                  MOVLB 0x0                     
     4914    1331         0839                  MOVF 0x39, W                  
     4915    1332         0022                  MOVLB 0x2                     
     4916    1333         00CF                  MOVWF 0x14F                   
     4917    1334         0020                  MOVLB 0x0                     
     4918    1335         083A                  MOVF 0x3A, W                  
     4919    1336         0021                  MOVLB 0x1                     
     4920    1337         00BE                  MOVWF 0xBE                    
     4921    1338         0020                  MOVLB 0x0                     
     4922    1339         0839                  MOVF 0x39, W                  
     4923    133A         0021                  MOVLB 0x1                     
     4924    133B         00BD                  MOVWF 0xBD                    
     4925    133C         306F                  MOVLW 0x6F                    
     4926    133D         07BD                  ADDWF 0xBD, F                 
     4927    133E         1803                  BTFSC 0x83, 0x0               
     4928    133F         0ABE                  INCF 0xBE, F                  
     4929    1340         0020                  MOVLB 0x0                     
     4930    1341         3560                  LSLF 0x60, W                  
     4931    1342         3ED2                  ADDLW 0xD2                    
     4932    1343         0086                  MOVWF FSR1                    
     4933    1344         3001                  MOVLW 0x1                     
     4934    1345         241D                  CALL 0x41D                    
     4935    1346         3190                  MOVLP 0x10                    
     4936    1347         083A                  MOVF 0x3A, W                  
     4937    1348         0264                  SUBWF 0x64, W                 
     4938    1349         1D03                  BTFSS STATUS, 0x2             
     4939    134A         2B4D                  GOTO 0x34D                    
     4940    134B         0839                  MOVF 0x39, W                  
     4941    134C         0263                  SUBWF 0x63, W                 
     4942    134D         1803                  BTFSC STATUS, 0x0             
     4943    134E         2B55                  GOTO 0x355                    
     4944    134F         3560                  LSLF 0x60, W                  
     4945    1350         3ED2                  ADDLW 0xD2                    
     4946    1351         0086                  MOVWF FSR1                    
     4947    1352         3001                  MOVLW 0x1                     
     4948    1353         2417                  CALL 0x417                    
     4949    1354         3190                  MOVLP 0x10                    
     4950    1355         301A                  MOVLW 0x1A                    
     4951    1356         2A1F                  GOTO 0x21F                    
     4952    1357         0020                  MOVLB 0x0                     
     4953    1358         08C5                  MOVF 0x45, F                  
     4954    1359         1D03                  BTFSS STATUS, 0x2             
     4955    135A         0008                  RETURN                        
     4956    135B         3004                  MOVLW 0x4                     
     4957    135C         0021                  MOVLB 0x1                     
     4958    135D         00E0                  MOVWF 0xE0                    
     4959    135E         0020                  MOVLB 0x0                     
     4960    135F         0852                  MOVF 0x52, W                  
     4961    1360         0021                  MOVLB 0x1                     
     4962    1361         00E1                  MOVWF 0xE1                    
     4963    1362         301B                  MOVLW 0x1B                    
     4964    1363         29C0                  GOTO 0x1C0                    
     4965    1364         0020                  MOVLB 0x0                     
     4966    1365         08C5                  MOVF 0x45, F                  
     4967    1366         1D03                  BTFSS STATUS, 0x2             
     4968    1367         0008                  RETURN                        
     4969    1368         0854                  MOVF 0x54, W                  
     4970    1369         3A02                  XORLW 0x2                     
     4971    136A         1D03                  BTFSS STATUS, 0x2             
     4972    136B         0008                  RETURN                        
     4973    136C         01D3                  CLRF 0x53                     
     4974    136D         0021                  MOVLB 0x1                     
     4975    136E         01DA                  CLRF 0xDA                     
     4976    136F         0020                  MOVLB 0x0                     
     4977    1370         301C                  MOVLW 0x1C                    
     4978    1371         2C0B                  GOTO 0x40B                    
     4979    1372         0020                  MOVLB 0x0                     
     4980    1373         083B                  MOVF 0x3B, W                  
     4981    1374         3A02                  XORLW 0x2                     
     4982    1375         1903                  BTFSC STATUS, 0x2             
     4983    1376         29D9                  GOTO 0x1D9                    
     4984    1377         300A                  MOVLW 0xA                     
     4985    1378         0253                  SUBWF 0x53, W                 
     4986    1379         1803                  BTFSC STATUS, 0x0             
     4987    137A         29E2                  GOTO 0x1E2                    
     4988    137B         0851                  MOVF 0x51, W                  
     4989    137C         3A04                  XORLW 0x4                     
     4990    137D         1903                  BTFSC STATUS, 0x2             
     4991    137E         29EA                  GOTO 0x1EA                    
     4992    137F         1C47                  BTFSS 0x47, 0x0               
     4993    1380         29A1                  GOTO 0x1A1                    
     4994    1381         0022                  MOVLB 0x2                     
     4995    1382         0852                  MOVF 0x152, W                 
     4996    1383         0020                  MOVLB 0x0                     
     4997    1384         0652                  XORWF 0x52, W                 
     4998    1385         1D03                  BTFSS STATUS, 0x2             
     4999    1386         2A1E                  GOTO 0x21E                    
     5000    1387         301D                  MOVLW 0x1D                    
     5001    1388         2A1F                  GOTO 0x21F                    
     5002    1389         3008                  MOVLW 0x8                     
     5003    138A         0020                  MOVLB 0x0                     
     5004    138B         0252                  SUBWF 0x52, W                 
     5005    138C         1803                  BTFSC STATUS, 0x0             
     5006    138D         2B90                  GOTO 0x390                    
     5007    138E         0AD2                  INCF 0x52, F                  
     5008    138F         29EB                  GOTO 0x1EB                    
     5009    1390         3022                  MOVLW 0x22                    
     5010    1391         0021                  MOVLB 0x1                     
     5011    1392         00EE                  MOVWF 0xEE                    
     5012    1393         0008                  RETURN                        
     5013    1394         085F                  MOVF 0xDF, W                  
     5014    1395         3AD0                  XORLW 0xD0                    
     5015    1396         1D03                  BTFSS 0x83, 0x2               
     5016    1397         2B9C                  GOTO 0x39C                    
     5017    1398         01DF                  CLRF 0xDF                     
     5018    1399         3006                  MOVLW 0x6                     
     5019    139A         00EE                  MOVWF 0xEE                    
     5020    139B         0008                  RETURN                        
     5021    139C         3008                  MOVLW 0x8                     
     5022    139D         0ADF                  INCF 0xDF, F                  
     5023    139E         025F                  SUBWF 0xDF, W                 
     5024    139F         1C03                  BTFSS 0x83, 0x0               
     5025    13A0         2B99                  GOTO 0x399                    
     5026    13A1         2949                  GOTO 0x149                    
     5027    13A2         085F                  MOVF 0xDF, W                  
     5028    13A3         3AD0                  XORLW 0xD0                    
     5029    13A4         1903                  BTFSC 0x83, 0x2               
     5030    13A5         2B90                  GOTO 0x390                    
     5031    13A6         29EB                  GOTO 0x1EB                    
     5032    13A7         0020                  MOVLB 0x0                     
     5033    13A8         01C5                  CLRF 0x45                     
     5034    13A9         1047                  BCF 0x47, 0x0                 
     5035    13AA         01DC                  CLRF 0x5C                     
     5036    13AB         3009                  MOVLW 0x9                     
     5037    13AC         0ADC                  INCF 0x5C, F                  
     5038    13AD         025C                  SUBWF 0x5C, W                 
     5039    13AE         1803                  BTFSC STATUS, 0x0             
     5040    13AF         2BDF                  GOTO 0x3DF                    
     5041    13B0         3006                  MOVLW 0x6                     
     5042    13B1         00F4                  MOVWF 0x74                    
     5043    13B2         085C                  MOVF 0x5C, W                  
     5044    13B3         23F8                  CALL 0x3F8                    
     5045    13B4         3190                  MOVLP 0x10                    
     5046    13B5         3EA0                  ADDLW 0xA0                    
     5047    13B6         0086                  MOVWF FSR1                    
     5048    13B7         3002                  MOVLW 0x2                     
     5049    13B8         0087                  MOVWF FSR1H                   
     5050    13B9         3050                  MOVLW 0x50                    
     5051    13BA         3FC0                  MOVWI [0]FSR1                 
     5052    13BB         3000                  MOVLW 0x0                     
     5053    13BC         3FC1                  MOVWI [1]FSR1                 
     5054    13BD         2BAB                  GOTO 0x3AB                    
     5055    13BE         30CF                  MOVLW 0xCF                    
     5056    13BF         0025                  MOVLB 0x5                     
     5057    13C0         00D0                  MOVWF 0x2D0                   
     5058    13C1         01D1                  CLRF 0x2D1                    
     5059    13C2         308E                  MOVLW 0x8E                    
     5060    13C3         0025                  MOVLB 0x5                     
     5061    13C4         00CA                  MOVWF 0x2CA                   
     5062    13C5         01CB                  CLRF 0x2CB                    
     5063    13C6         300D                  MOVLW 0xD                     
     5064    13C7         0025                  MOVLB 0x5                     
     5065    13C8         00C4                  MOVWF 0x2C4                   
     5066    13C9         01C5                  CLRF 0x2C5                    
     5067    13CA         304C                  MOVLW 0x4C                    
     5068    13CB         0025                  MOVLB 0x5                     
     5069    13CC         00BE                  MOVWF 0x2BE                   
     5070    13CD         01BF                  CLRF 0x2BF                    
     5071    13CE         308B                  MOVLW 0x8B                    
     5072    13CF         0025                  MOVLB 0x5                     
     5073    13D0         00B8                  MOVWF 0x2B8                   
     5074    13D1         01B9                  CLRF 0x2B9                    
     5075    13D2         30CA                  MOVLW 0xCA                    
     5076    13D3         0025                  MOVLB 0x5                     
     5077    13D4         00B2                  MOVWF 0x2B2                   
     5078    13D5         01B3                  CLRF 0x2B3                    
     5079    13D6         3049                  MOVLW 0x49                    
     5080    13D7         0025                  MOVLB 0x5                     
     5081    13D8         00AC                  MOVWF 0x2AC                   
     5082    13D9         01AD                  CLRF 0x2AD                    
     5083    13DA         3008                  MOVLW 0x8                     
     5084    13DB         0025                  MOVLB 0x5                     
     5085    13DC         00A6                  MOVWF 0x2A6                   
     5086    13DD         01A7                  CLRF 0x2A7                    
     5087    13DE         2BEC                  GOTO 0x3EC                    
     5088    13DF         0852                  MOVF 0x2D2, W                 
     5089    13E0         3EFF                  ADDLW 0xFF                    
     5090    13E1         1C03                  BTFSS 0x283, 0x0              
     5091    13E2         2BEC                  GOTO 0x3EC                    
     5092    13E3         0084                  MOVWF 0x284                   
     5093    13E4         3008                  MOVLW 0x8                     
     5094    13E5         0204                  SUBWF 0x284, W                
     5095    13E6         1803                  BTFSC 0x283, 0x0              
     5096    13E7         2BEC                  GOTO 0x3EC                    
     5097    13E8         3198                  MOVLP 0x18                    
     5098    13E9         3504                  LSLF 0x284, W                 
     5099    13EA         3E10                  ADDLW 0x10                    
     5100    13EB         0082                  MOVWF 0x282                   
     5101    13EC         0020                  MOVLB 0x0                     
     5102    13ED         01A0                  CLRF 0x20                     
     5103    13EE         01F4                  CLRF 0x74                     
     5104    13EF         01F5                  CLRF 0x75                     
     5105    13F0         01F6                  CLRF 0x76                     
     5106    13F1         3184                  MOVLP 0x4                     
     5107    13F2         24E9                  CALL 0x4E9                    
     5108    13F3         0021                  MOVLB 0x1                     
     5109    13F4         01EE                  CLRF 0xEE                     
     5110    13F5         0AEE                  INCF 0xEE, F                  
     5111    13F6         3181                  MOVLP 0x1                     
     5112    13F7         29A3                  GOTO 0x1A3                    
     5113    13F8         00F6                  MOVWF 0xF6                    
     5114    13F9         01F5                  CLRF 0xF5                     
     5115    13FA         0874                  MOVF 0xF4, W                  
     5116    13FB         1876                  BTFSC 0xF6, 0x0               
     5117    13FC         07F5                  ADDWF 0xF5, F                 
     5118    13FD         35F4                  LSLF 0xF4, F                  
     5119    13FE         36F6                  LSRF 0xF6, F                  
     5120    13FF         08F6                  MOVF 0xF6, F                  
     5121    1400         1D03                  BTFSS 0x83, 0x2               
     5122    1401         2BFA                  GOTO 0x3FA                    
     5123    1402         0875                  MOVF 0xF5, W                  
     5124    1403         0008                  RETURN                        
     5125    1404         0020                  MOVLB 0x0                     
     5126    1405         0852                  MOVF 0x52, W                  
     5127    1406         3EDA                  ADDLW 0xDA                    
     5128    1407         0086                  MOVWF FSR1                    
     5129    1408         3001                  MOVLW 0x1                     
     5130    1409         0087                  MOVWF FSR1H                   
     5131    140A         0008                  RETURN                        
     5132    140B         01BB                  CLRF 0x3B                     
     5133    140C         0ABB                  INCF 0x3B, F                  
     5134    140D         0021                  MOVLB 0x1                     
     5135    140E         00EE                  MOVWF 0xEE                    
     5136    140F         0008                  RETURN                        
     5137    1410         0086                  MOVWF 0x86                    
     5138    1411         3001                  MOVLW 0x1                     
     5139    1412         0087                  MOVWF 0x87                    
     5140    1413         30FF                  MOVLW 0xFF                    
     5141    1414         3FC0                  MOVWI [0]FSR1                 
     5142    1415         3FC1                  MOVWI [1]FSR1                 
     5143    1416         0008                  RETURN                        
     5144    1417         0087                  MOVWF 0x87                    
     5145    1418         0839                  MOVF 0xB9, W                  
     5146    1419         3FC0                  MOVWI [0]FSR1                 
     5147    141A         083A                  MOVF 0xBA, W                  
     5148    141B         3FC1                  MOVWI [1]FSR1                 
     5149    141C         0008                  RETURN                        
     5150    141D         0087                  MOVWF 0x87                    
     5151    141E         3F40                  MOVIW [0]FSR1                 
     5152    141F         00E3                  MOVWF 0xE3                    
     5153    1420         3F41                  MOVIW [1]FSR1                 
     5154    1421         00E4                  MOVWF 0xE4                    
     5155    1422         0008                  RETURN                        
     5156    1423         0087                  MOVWF 0x87                    
     5157    1424         3000                  MOVLW 0x0                     
     5158    1425         3FC0                  MOVWI [0]FSR1                 
     5159    1426         3FC1                  MOVWI [1]FSR1                 
     5160    1427         0AE0                  INCF 0xE0, F                  
     5161    1428         0008                  RETURN                        
     5162    1429         01DA                  CLRF 0xDA                     
     5163    142A         0020                  MOVLB 0x0                     
     5164    142B         01BB                  CLRF 0x3B                     
     5165    142C         0008                  RETURN                        
     5166    142D         10E9                  BCF 0x69, 0x1                 
     5167    142E         11E9                  BCF 0x69, 0x3                 
     5168    142F         1269                  BCF 0x69, 0x4                 
     5169    1430         1169                  BCF 0x69, 0x2                 
     5170    1431         0859                  MOVF 0x59, W                  
     5171    1432         3A50                  XORLW 0x50                    
     5172    1433         1D03                  BTFSS STATUS, 0x2             
     5173    1434         2C37                  GOTO 0x437                    
     5174    1435         17F1                  BSF 0x71, 0x7                 
     5175    1436         0008                  RETURN                        
     5176    1437         0859                  MOVF 0x59, W                  
     5177    1438         390F                  ANDLW 0xF                     
     5178    1439         3EF8                  ADDLW 0xF8                    
     5179    143A         00DD                  MOVWF 0x5D                    
     5180    143B         3EDA                  ADDLW 0xDA                    
     5181    143C         0086                  MOVWF FSR1                    
     5182    143D         3001                  MOVLW 0x1                     
     5183    143E         0087                  MOVWF FSR1H                   
     5184    143F         0801                  MOVF INDF1, W                 
     5185    1440         0020                  MOVLB 0x0                     
     5186    1441         00E0                  MOVWF 0x60                    
     5187    1442         2C4D                  GOTO 0x44D                    
     5188    1443         01D7                  CLRF 0x57                     
     5189    1444         2C5B                  GOTO 0x45B                    
     5190    1445         01D7                  CLRF 0x57                     
     5191    1446         0AD7                  INCF 0x57, F                  
     5192    1447         2C5B                  GOTO 0x45B                    
     5193    1448         3002                  MOVLW 0x2                     
     5194    1449         2C4B                  GOTO 0x44B                    
     5195    144A         3003                  MOVLW 0x3                     
     5196    144B         00D7                  MOVWF 0x57                    
     5197    144C         2C5B                  GOTO 0x45B                    
     5198    144D         0860                  MOVF 0x60, W                  
     5199    144E         3A01                  XORLW 0x1                     
     5200    144F         1903                  BTFSC STATUS, 0x2             
     5201    1450         2C43                  GOTO 0x443                    
     5202    1451         3A03                  XORLW 0x3                     
     5203    1452         1903                  BTFSC STATUS, 0x2             
     5204    1453         2C45                  GOTO 0x445                    
     5205    1454         3A06                  XORLW 0x6                     
     5206    1455         1903                  BTFSC STATUS, 0x2             
     5207    1456         2C48                  GOTO 0x448                    
     5208    1457         3A0C                  XORLW 0xC                     
     5209    1458         1903                  BTFSC STATUS, 0x2             
     5210    1459         2C4A                  GOTO 0x44A                    
     5211    145A         2C5B                  GOTO 0x45B                    
     5212    145B         0021                  MOVLB 0x1                     
     5213    145C         0855                  MOVF 0xD5, W                  
     5214    145D         0020                  MOVLB 0x0                     
     5215    145E         0560                  ANDWF 0x60, W                 
     5216    145F         1903                  BTFSC STATUS, 0x2             
     5217    1460         2C8C                  GOTO 0x48C                    
     5218    1461         0023                  MOVLB 0x3                     
     5219    1462         0835                  MOVF 0x1B5, W                 
     5220    1463         00F6                  MOVWF 0x1F6                   
     5221    1464         01F7                  CLRF 0x1F7                    
     5222    1465         00F7                  MOVWF 0x1F7                   
     5223    1466         01F6                  CLRF 0x1F6                    
     5224    1467         0876                  MOVF 0x1F6, W                 
     5225    1468         0434                  IORWF 0x1B4, W                
     5226    1469         0020                  MOVLB 0x0                     
     5227    146A         00B5                  MOVWF 0x35                    
     5228    146B         0877                  MOVF 0x77, W                  
     5229    146C         00B6                  MOVWF 0x36                    
     5230    146D         0023                  MOVLB 0x3                     
     5231    146E         0836                  MOVF 0x1B6, W                 
     5232    146F         00F6                  MOVWF 0x1F6                   
     5233    1470         3005                  MOVLW 0x5                     
     5234    1471         36F6                  LSRF 0x1F6, F                 
     5235    1472         0B89                  DECFSZ 0x189, F               
     5236    1473         2C71                  GOTO 0x471                    
     5237    1474         0876                  MOVF 0x1F6, W                 
     5238    1475         0020                  MOVLB 0x0                     
     5239    1476         00D0                  MOVWF 0x50                    
     5240    1477         3003                  MOVLW 0x3                     
     5241    1478         05D0                  ANDWF 0x50, F                 
     5242    1479         0023                  MOVLB 0x3                     
     5243    147A         0836                  MOVF 0x1B6, W                 
     5244    147B         0021                  MOVLB 0x1                     
     5245    147C         00CC                  MOVWF 0xCC                    
     5246    147D         3007                  MOVLW 0x7                     
     5247    147E         05CC                  ANDWF 0xCC, F                 
     5248    147F         0023                  MOVLB 0x3                     
     5249    1480         0836                  MOVF 0x1B6, W                 
     5250    1481         00F6                  MOVWF 0x1F6                   
     5251    1482         36F6                  LSRF 0x1F6, F                 
     5252    1483         36F6                  LSRF 0x1F6, F                 
     5253    1484         36F6                  LSRF 0x1F6, F                 
     5254    1485         0876                  MOVF 0x1F6, W                 
     5255    1486         0020                  MOVLB 0x0                     
     5256    1487         00CF                  MOVWF 0x4F                    
     5257    1488         3003                  MOVLW 0x3                     
     5258    1489         05CF                  ANDWF 0x4F, F                 
     5259    148A         24A9                  CALL 0x4A9                    
     5260    148B         3194                  MOVLP 0x14                    
     5261    148C         0020                  MOVLB 0x0                     
     5262    148D         3557                  LSLF 0x57, W                  
     5263    148E         3E21                  ADDLW 0x21                    
     5264    148F         0086                  MOVWF FSR1                    
     5265    1490         0187                  CLRF FSR1H                    
     5266    1491         3F40                  MOVIW [0]FSR1                 
     5267    1492         00F6                  MOVWF 0x76                    
     5268    1493         3F41                  MOVIW [1]FSR1                 
     5269    1494         00F7                  MOVWF 0x77                    
     5270    1495         0023                  MOVLB 0x3                     
     5271    1496         0835                  MOVF 0x1B5, W                 
     5272    1497         0277                  SUBWF 0x1F7, W                
     5273    1498         1D03                  BTFSS 0x183, 0x2              
     5274    1499         2C9C                  GOTO 0x49C                    
     5275    149A         0834                  MOVF 0x1B4, W                 
     5276    149B         0276                  SUBWF 0x1F6, W                
     5277    149C         1803                  BTFSC 0x183, 0x0              
     5278    149D         0008                  RETURN                        
     5279    149E         0020                  MOVLB 0x0                     
     5280    149F         3557                  LSLF 0x57, W                  
     5281    14A0         3E21                  ADDLW 0x21                    
     5282    14A1         0086                  MOVWF FSR1                    
     5283    14A2         0187                  CLRF FSR1H                    
     5284    14A3         0023                  MOVLB 0x3                     
     5285    14A4         0834                  MOVF 0x1B4, W                 
     5286    14A5         3FC0                  MOVWI [0]FSR1                 
     5287    14A6         0835                  MOVF 0x1B5, W                 
     5288    14A7         3FC1                  MOVWI [1]FSR1                 
     5289    14A8         0008                  RETURN                        
     5290    14A9         1770                  BSF 0x1F0, 0x6                
     5291    14AA         0836                  MOVF 0x1B6, W                 
     5292    14AB         0230                  SUBWF 0x1B0, W                
     5293    14AC         1D03                  BTFSS 0x183, 0x2              
     5294    14AD         2CB0                  GOTO 0x4B0                    
     5295    14AE         0835                  MOVF 0x1B5, W                 
     5296    14AF         022F                  SUBWF 0x1AF, W                
     5297    14B0         1803                  BTFSC 0x183, 0x0              
     5298    14B1         2CCA                  GOTO 0x4CA                    
     5299    14B2         0836                  MOVF 0x1B6, W                 
     5300    14B3         00B0                  MOVWF 0x1B0                   
     5301    14B4         0835                  MOVF 0x1B5, W                 
     5302    14B5         00AF                  MOVWF 0x1AF                   
     5303    14B6         0830                  MOVF 0x1B0, W                 
     5304    14B7         022E                  SUBWF 0x1AE, W                
     5305    14B8         1D03                  BTFSS 0x183, 0x2              
     5306    14B9         2CBC                  GOTO 0x4BC                    
     5307    14BA         082F                  MOVF 0x1AF, W                 
     5308    14BB         022D                  SUBWF 0x1AD, W                
     5309    14BC         1C03                  BTFSS 0x183, 0x0              
     5310    14BD         15F0                  BSF 0x1F0, 0x3                
     5311    14BE         0021                  MOVLB 0x1                     
     5312    14BF         083C                  MOVF 0xBC, W                  
     5313    14C0         0020                  MOVLB 0x0                     
     5314    14C1         0230                  SUBWF 0x30, W                 
     5315    14C2         1D03                  BTFSS STATUS, 0x2             
     5316    14C3         2CC8                  GOTO 0x4C8                    
     5317    14C4         0021                  MOVLB 0x1                     
     5318    14C5         083B                  MOVF 0xBB, W                  
     5319    14C6         0020                  MOVLB 0x0                     
     5320    14C7         022F                  SUBWF 0x2F, W                 
     5321    14C8         1803                  BTFSC STATUS, 0x0             
     5322    14C9         1471                  BSF 0x71, 0x0                 
     5323    14CA         0834                  MOVF 0x34, W                  
     5324    14CB         0236                  SUBWF 0x36, W                 
     5325    14CC         1D03                  BTFSS STATUS, 0x2             
     5326    14CD         2CD0                  GOTO 0x4D0                    
     5327    14CE         0833                  MOVF 0x33, W                  
     5328    14CF         0235                  SUBWF 0x35, W                 
     5329    14D0         1803                  BTFSC STATUS, 0x0             
     5330    14D1         2D07                  GOTO 0x507                    
     5331    14D2         0836                  MOVF 0x36, W                  
     5332    14D3         00B4                  MOVWF 0x34                    
     5333    14D4         0835                  MOVF 0x35, W                  
     5334    14D5         00B3                  MOVWF 0x33                    
     5335    14D6         0832                  MOVF 0x32, W                  
     5336    14D7         0234                  SUBWF 0x34, W                 
     5337    14D8         1D03                  BTFSS STATUS, 0x2             
     5338    14D9         2CDC                  GOTO 0x4DC                    
     5339    14DA         0831                  MOVF 0x31, W                  
     5340    14DB         0233                  SUBWF 0x33, W                 
     5341    14DC         1C03                  BTFSS STATUS, 0x0             
     5342    14DD         1670                  BSF 0x70, 0x4                 
     5343    14DE         0834                  MOVF 0x34, W                  
     5344    14DF         0021                  MOVLB 0x1                     
     5345    14E0         023E                  SUBWF 0xBE, W                 
     5346    14E1         1D03                  BTFSS 0x83, 0x2               
     5347    14E2         2CE7                  GOTO 0x4E7                    
     5348    14E3         0020                  MOVLB 0x0                     
     5349    14E4         0833                  MOVF 0x33, W                  
     5350    14E5         0021                  MOVLB 0x1                     
     5351    14E6         023D                  SUBWF 0xBD, W                 
     5352    14E7         1C03                  BTFSS 0x83, 0x0               
     5353    14E8         2D07                  GOTO 0x507                    
     5354    14E9         17F0                  BSF 0xF0, 0x7                 
     5355    14EA         2D07                  GOTO 0x507                    
     5356    14EB         0020                  MOVLB 0x0                     
     5357    14EC         0857                  MOVF 0x57, W                  
     5358    14ED         3EAD                  ADDLW 0xAD                    
     5359    14EE         0086                  MOVWF FSR1                    
     5360    14EF         0187                  CLRF FSR1H                    
     5361    14F0         0850                  MOVF 0x50, W                  
     5362    14F1         0201                  SUBWF INDF1, W                
     5363    14F2         1803                  BTFSC STATUS, 0x0             
     5364    14F3         2CF9                  GOTO 0x4F9                    
     5365    14F4         0857                  MOVF 0x57, W                  
     5366    14F5         3EAD                  ADDLW 0xAD                    
     5367    14F6         0086                  MOVWF FSR1                    
     5368    14F7         0850                  MOVF 0x50, W                  
     5369    14F8         0081                  MOVWF INDF1                   
     5370    14F9         1170                  BCF 0x70, 0x2                 
     5371    14FA         2D05                  GOTO 0x505                    
     5372    14FB         1170                  BCF 0x70, 0x2                 
     5373    14FC         10F0                  BCF 0x70, 0x1                 
     5374    14FD         2D19                  GOTO 0x519                    
     5375    14FE         10F0                  BCF 0x70, 0x1                 
     5376    14FF         1070                  BCF 0x70, 0x0                 
     5377    1500         16F0                  BSF 0x70, 0x5                 
     5378    1501         2D19                  GOTO 0x519                    
     5379    1502         2D04                  GOTO 0x504                    
     5380    1503         1170                  BCF 0x70, 0x2                 
     5381    1504         10F0                  BCF 0x70, 0x1                 
     5382    1505         1070                  BCF 0x70, 0x0                 
     5383    1506         2D19                  GOTO 0x519                    
     5384    1507         0021                  MOVLB 0x1                     
     5385    1508         084C                  MOVF 0xCC, W                  
     5386    1509         3A00                  XORLW 0x0                     
     5387    150A         1903                  BTFSC 0x83, 0x2               
     5388    150B         2CEB                  GOTO 0x4EB                    
     5389    150C         3A01                  XORLW 0x1                     
     5390    150D         1903                  BTFSC 0x83, 0x2               
     5391    150E         2CFB                  GOTO 0x4FB                    
     5392    150F         3A03                  XORLW 0x3                     
     5393    1510         1903                  BTFSC 0x83, 0x2               
     5394    1511         2D02                  GOTO 0x502                    
     5395    1512         3A01                  XORLW 0x1                     
     5396    1513         1903                  BTFSC 0x83, 0x2               
     5397    1514         2CFE                  GOTO 0x4FE                    
     5398    1515         3A06                  XORLW 0x6                     
     5399    1516         1903                  BTFSC 0x83, 0x2               
     5400    1517         2D02                  GOTO 0x502                    
     5401    1518         2D03                  GOTO 0x503                    
     5402    1519         0021                  MOVLB 0x1                     
     5403    151A         084C                  MOVF 0xCC, W                  
     5404    151B         1903                  BTFSC 0x83, 0x2               
     5405    151C         0008                  RETURN                        
     5406    151D         3002                  MOVLW 0x2                     
     5407    151E         0020                  MOVLB 0x0                     
     5408    151F         024F                  SUBWF 0x4F, W                 
     5409    1520         1C03                  BTFSS STATUS, 0x0             
     5410    1521         2D52                  GOTO 0x552                    
     5411    1522         084F                  MOVF 0x4F, W                  
     5412    1523         3A03                  XORLW 0x3                     
     5413    1524         1D03                  BTFSS STATUS, 0x2             
     5414    1525         2D30                  GOTO 0x530                    
     5415    1526         3001                  MOVLW 0x1                     
     5416    1527         00F5                  MOVWF 0x75                    
     5417    1528         0A57                  INCF 0x57, W                  
     5418    1529         2D2B                  GOTO 0x52B                    
     5419    152A         35F5                  LSLF 0x75, F                  
     5420    152B         0B89                  DECFSZ WREG, F                
     5421    152C         2D2A                  GOTO 0x52A                    
     5422    152D         0875                  MOVF 0x75, W                  
     5423    152E         0021                  MOVLB 0x1                     
     5424    152F         04D6                  IORWF 0xD6, F                 
     5425    1530         0020                  MOVLB 0x0                     
     5426    1531         0857                  MOVF 0x57, W                  
     5427    1532         3E49                  ADDLW 0x49                    
     5428    1533         0086                  MOVWF FSR1                    
     5429    1534         3001                  MOVLW 0x1                     
     5430    1535         0087                  MOVWF FSR1H                   
     5431    1536         084F                  MOVF 0x4F, W                  
     5432    1537         0781                  ADDWF INDF1, F                
     5433    1538         0857                  MOVF 0x57, W                  
     5434    1539         3E49                  ADDLW 0x49                    
     5435    153A         0086                  MOVWF FSR1                    
     5436    153B         3005                  MOVLW 0x5                     
     5437    153C         0201                  SUBWF INDF1, W                
     5438    153D         1C03                  BTFSS STATUS, 0x0             
     5439    153E         2D52                  GOTO 0x552                    
     5440    153F         0860                  MOVF 0x60, W                  
     5441    1540         0021                  MOVLB 0x1                     
     5442    1541         0556                  ANDWF 0xD6, W                 
     5443    1542         1903                  BTFSC 0x83, 0x2               
     5444    1543         2D52                  GOTO 0x552                    
     5445    1544         0020                  MOVLB 0x0                     
     5446    1545         0857                  MOVF 0x57, W                  
     5447    1546         3EAD                  ADDLW 0xAD                    
     5448    1547         0086                  MOVWF FSR1                    
     5449    1548         0187                  CLRF FSR1H                    
     5450    1549         0801                  MOVF INDF1, W                 
     5451    154A         0250                  SUBWF 0x50, W                 
     5452    154B         1803                  BTFSC STATUS, 0x0             
     5453    154C         2D52                  GOTO 0x552                    
     5454    154D         0857                  MOVF 0x57, W                  
     5455    154E         3EAD                  ADDLW 0xAD                    
     5456    154F         0086                  MOVWF FSR1                    
     5457    1550         0801                  MOVF INDF1, W                 
     5458    1551         00D0                  MOVWF 0x50                    
     5459    1552         0020                  MOVLB 0x0                     
     5460    1553         0857                  MOVF 0x57, W                  
     5461    1554         3E45                  ADDLW 0x45                    
     5462    1555         0086                  MOVWF FSR1                    
     5463    1556         3001                  MOVLW 0x1                     
     5464    1557         0087                  MOVWF FSR1H                   
     5465    1558         0850                  MOVF 0x50, W                  
     5466    1559         0201                  SUBWF INDF1, W                
     5467    155A         1803                  BTFSC STATUS, 0x0             
     5468    155B         2D61                  GOTO 0x561                    
     5469    155C         0857                  MOVF 0x57, W                  
     5470    155D         3E45                  ADDLW 0x45                    
     5471    155E         0086                  MOVWF FSR1                    
     5472    155F         0850                  MOVF 0x50, W                  
     5473    1560         0081                  MOVWF INDF1                   
     5474    1561         0850                  MOVF 0x50, W                  
     5475    1562         2FB4                  GOTO 0x7B4                    
     5476    1563         300B                  MOVLW 0xB                     
     5477    1564         0021                  MOVLB 0x1                     
     5478    1565         025B                  SUBWF 0xDB, W                 
     5479    1566         1C03                  BTFSS 0x83, 0x0               
     5480    1567         0ADB                  INCF 0xDB, F                  
     5481    1568         0020                  MOVLB 0x0                     
     5482    1569         0852                  MOVF 0x52, W                  
     5483    156A         0021                  MOVLB 0x1                     
     5484    156B         0252                  SUBWF 0xD2, W                 
     5485    156C         1803                  BTFSC 0x83, 0x0               
     5486    156D         2D7E                  GOTO 0x57E                    
     5487    156E         3003                  MOVLW 0x3                     
     5488    156F         0AD0                  INCF 0xD0, F                  
     5489    1570         0250                  SUBWF 0xD0, W                 
     5490    1571         1C03                  BTFSS 0x83, 0x0               
     5491    1572         2F87                  GOTO 0x787                    
     5492    1573         300B                  MOVLW 0xB                     
     5493    1574         025B                  SUBWF 0xDB, W                 
     5494    1575         1803                  BTFSC 0x83, 0x0               
     5495    1576         2D7A                  GOTO 0x57A                    
     5496    1577         1571                  BSF 0xF1, 0x2                 
     5497    1578         01DB                  CLRF 0xDB                     
     5498    1579         2F87                  GOTO 0x787                    
     5499    157A         3001                  MOVLW 0x1                     
     5500    157B         27B4                  CALL 0x7B4                    
     5501    157C         3194                  MOVLP 0x14                    
     5502    157D         2F87                  GOTO 0x787                    
     5503    157E         0852                  MOVF 0xD2, W                  
     5504    157F         0020                  MOVLB 0x0                     
     5505    1580         0252                  SUBWF 0x52, W                 
     5506    1581         1803                  BTFSC STATUS, 0x0             
     5507    1582         2D88                  GOTO 0x588                    
     5508    1583         3001                  MOVLW 0x1                     
     5509    1584         27B4                  CALL 0x7B4                    
     5510    1585         3194                  MOVLP 0x14                    
     5511    1586         17F1                  BSF 0x71, 0x7                 
     5512    1587         2F87                  GOTO 0x787                    
     5513    1588         0021                  MOVLB 0x1                     
     5514    1589         0850                  MOVF 0xD0, W                  
     5515    158A         1903                  BTFSC 0x83, 0x2               
     5516    158B         2F87                  GOTO 0x787                    
     5517    158C         01D0                  CLRF 0xD0                     
     5518    158D         2F87                  GOTO 0x787                    
     5519    158E         08DA                  MOVF 0xDA, F                  
     5520    158F         1D03                  BTFSS 0x83, 0x2               
     5521    1590         2E15                  GOTO 0x615                    
     5522    1591         0021                  MOVLB 0x1                     
     5523    1592         0B3F                  DECFSZ 0xBF, W                
     5524    1593         2DD7                  GOTO 0x5D7                    
     5525    1594         0020                  MOVLB 0x0                     
     5526    1595         0830                  MOVF 0x30, W                  
     5527    1596         0021                  MOVLB 0x1                     
     5528    1597         0238                  SUBWF 0xB8, W                 
     5529    1598         1D03                  BTFSS 0x83, 0x2               
     5530    1599         2D9E                  GOTO 0x59E                    
     5531    159A         0020                  MOVLB 0x0                     
     5532    159B         082F                  MOVF 0x2F, W                  
     5533    159C         0021                  MOVLB 0x1                     
     5534    159D         0237                  SUBWF 0xB7, W                 
     5535    159E         1803                  BTFSC 0x83, 0x0               
     5536    159F         15F1                  BSF 0xF1, 0x3                 
     5537    15A0         083A                  MOVF 0xBA, W                  
     5538    15A1         0020                  MOVLB 0x0                     
     5539    15A2         0234                  SUBWF 0x34, W                 
     5540    15A3         1D03                  BTFSS STATUS, 0x2             
     5541    15A4         2DA9                  GOTO 0x5A9                    
     5542    15A5         0021                  MOVLB 0x1                     
     5543    15A6         0839                  MOVF 0xB9, W                  
     5544    15A7         0020                  MOVLB 0x0                     
     5545    15A8         0233                  SUBWF 0x33, W                 
     5546    15A9         1C03                  BTFSS STATUS, 0x0             
     5547    15AA         2E15                  GOTO 0x615                    
     5548    15AB         0834                  MOVF 0x34, W                  
     5549    15AC         00F8                  MOVWF 0x78                    
     5550    15AD         0833                  MOVF 0x33, W                  
     5551    15AE         00F7                  MOVWF 0x77                    
     5552    15AF         0021                  MOVLB 0x1                     
     5553    15B0         0839                  MOVF 0xB9, W                  
     5554    15B1         02F7                  SUBWF 0xF7, F                 
     5555    15B2         083A                  MOVF 0xBA, W                  
     5556    15B3         27CD                  CALL 0x7CD                    
     5557    15B4         3194                  MOVLP 0x14                    
     5558    15B5         1803                  BTFSC 0x83, 0x0               
     5559    15B6         0AF8                  INCF 0xF8, F                  
     5560    15B7         0020                  MOVLB 0x0                     
     5561    15B8         0833                  MOVF 0x33, W                  
     5562    15B9         3E7B                  ADDLW 0x7B                    
     5563    15BA         00F5                  MOVWF 0x75                    
     5564    15BB         3000                  MOVLW 0x0                     
     5565    15BC         3D34                  ADDWFC 0x34, W                
     5566    15BD         00F6                  MOVWF 0x76                    
     5567    15BE         0830                  MOVF 0x30, W                  
     5568    15BF         0276                  SUBWF 0x76, W                 
     5569    15C0         1D03                  BTFSS STATUS, 0x2             
     5570    15C1         2DC4                  GOTO 0x5C4                    
     5571    15C2         082F                  MOVF 0x2F, W                  
     5572    15C3         0275                  SUBWF 0x75, W                 
     5573    15C4         1803                  BTFSC STATUS, 0x0             
     5574    15C5         2DCD                  GOTO 0x5CD                    
     5575    15C6         0834                  MOVF 0x34, W                  
     5576    15C7         00B8                  MOVWF 0x38                    
     5577    15C8         0833                  MOVF 0x33, W                  
     5578    15C9         27EF                  CALL 0x7EF                    
     5579    15CA         3194                  MOVLP 0x14                    
     5580    15CB         1671                  BSF 0x71, 0x4                 
     5581    15CC         2E15                  GOTO 0x615                    
     5582    15CD         0830                  MOVF 0x30, W                  
     5583    15CE         00B8                  MOVWF 0x38                    
     5584    15CF         082F                  MOVF 0x2F, W                  
     5585    15D0         27EF                  CALL 0x7EF                    
     5586    15D1         3194                  MOVLP 0x14                    
     5587    15D2         301E                  MOVLW 0x1E                    
     5588    15D3         07B7                  ADDWF 0x37, F                 
     5589    15D4         1803                  BTFSC STATUS, 0x0             
     5590    15D5         0AB8                  INCF 0x38, F                  
     5591    15D6         2E15                  GOTO 0x615                    
     5592    15D7         083A                  MOVF 0x3A, W                  
     5593    15D8         0020                  MOVLB 0x0                     
     5594    15D9         0234                  SUBWF 0x34, W                 
     5595    15DA         1D03                  BTFSS STATUS, 0x2             
     5596    15DB         2DE0                  GOTO 0x5E0                    
     5597    15DC         0021                  MOVLB 0x1                     
     5598    15DD         0839                  MOVF 0xB9, W                  
     5599    15DE         0020                  MOVLB 0x0                     
     5600    15DF         0233                  SUBWF 0x33, W                 
     5601    15E0         1803                  BTFSC STATUS, 0x0             
     5602    15E1         15F1                  BSF 0x71, 0x3                 
     5603    15E2         0830                  MOVF 0x30, W                  
     5604    15E3         0021                  MOVLB 0x1                     
     5605    15E4         0238                  SUBWF 0xB8, W                 
     5606    15E5         1D03                  BTFSS 0x83, 0x2               
     5607    15E6         2DEB                  GOTO 0x5EB                    
     5608    15E7         0020                  MOVLB 0x0                     
     5609    15E8         082F                  MOVF 0x2F, W                  
     5610    15E9         0021                  MOVLB 0x1                     
     5611    15EA         0237                  SUBWF 0xB7, W                 
     5612    15EB         1C03                  BTFSS 0x83, 0x0               
     5613    15EC         2E15                  GOTO 0x615                    
     5614    15ED         0838                  MOVF 0xB8, W                  
     5615    15EE         00F8                  MOVWF 0xF8                    
     5616    15EF         0837                  MOVF 0xB7, W                  
     5617    15F0         00F7                  MOVWF 0xF7                    
     5618    15F1         0020                  MOVLB 0x0                     
     5619    15F2         082F                  MOVF 0x2F, W                  
     5620    15F3         02F7                  SUBWF 0x77, F                 
     5621    15F4         0830                  MOVF 0x30, W                  
     5622    15F5         27CD                  CALL 0x7CD                    
     5623    15F6         3194                  MOVLP 0x14                    
     5624    15F7         1803                  BTFSC STATUS, 0x0             
     5625    15F8         0AF8                  INCF 0x78, F                  
     5626    15F9         0833                  MOVF 0x33, W                  
     5627    15FA         022F                  SUBWF 0x2F, W                 
     5628    15FB         00F5                  MOVWF 0x75                    
     5629    15FC         0834                  MOVF 0x34, W                  
     5630    15FD         3B30                  SUBWFB 0x30, W                
     5631    15FE         00F6                  MOVWF 0x76                    
     5632    15FF         3000                  MOVLW 0x0                     
     5633    1600         0276                  SUBWF 0x76, W                 
     5634    1601         307C                  MOVLW 0x7C                    
     5635    1602         1903                  BTFSC STATUS, 0x2             
     5636    1603         0275                  SUBWF 0x75, W                 
     5637    1604         1C03                  BTFSS STATUS, 0x0             
     5638    1605         2E0C                  GOTO 0x60C                    
     5639    1606         0830                  MOVF 0x30, W                  
     5640    1607         00B8                  MOVWF 0x38                    
     5641    1608         082F                  MOVF 0x2F, W                  
     5642    1609         27F5                  CALL 0x7F5                    
     5643    160A         3194                  MOVLP 0x14                    
     5644    160B         2DCB                  GOTO 0x5CB                    
     5645    160C         0834                  MOVF 0x34, W                  
     5646    160D         00B8                  MOVWF 0x38                    
     5647    160E         0833                  MOVF 0x33, W                  
     5648    160F         27F5                  CALL 0x7F5                    
     5649    1610         3194                  MOVLP 0x14                    
     5650    1611         30E2                  MOVLW 0xE2                    
     5651    1612         07B7                  ADDWF 0x37, F                 
     5652    1613         30FF                  MOVLW 0xFF                    
     5653    1614         3DB8                  ADDWFC 0x38, F                
     5654    1615         3002                  MOVLW 0x2                     
     5655    1616         0020                  MOVLB 0x0                     
     5656    1617         0240                  SUBWF 0x40, W                 
     5657    1618         1C03                  BTFSS STATUS, 0x0             
     5658    1619         2E3C                  GOTO 0x63C                    
     5659    161A         3004                  MOVLW 0x4                     
     5660    161B         01D6                  CLRF 0x56                     
     5661    161C         01D7                  CLRF 0x57                     
     5662    161D         0257                  SUBWF 0x57, W                 
     5663    161E         1803                  BTFSC STATUS, 0x0             
     5664    161F         2E35                  GOTO 0x635                    
     5665    1620         0857                  MOVF 0x57, W                  
     5666    1621         3E45                  ADDLW 0x45                    
     5667    1622         0086                  MOVWF FSR1                    
     5668    1623         3001                  MOVLW 0x1                     
     5669    1624         0087                  MOVWF FSR1H                   
     5670    1625         3002                  MOVLW 0x2                     
     5671    1626         0201                  SUBWF INDF1, W                
     5672    1627         1C03                  BTFSS STATUS, 0x0             
     5673    1628         2E32                  GOTO 0x632                    
     5674    1629         3001                  MOVLW 0x1                     
     5675    162A         00F5                  MOVWF 0x75                    
     5676    162B         0A57                  INCF 0x57, W                  
     5677    162C         2E2E                  GOTO 0x62E                    
     5678    162D         35F5                  LSLF 0x75, F                  
     5679    162E         0B89                  DECFSZ WREG, F                
     5680    162F         2E2D                  GOTO 0x62D                    
     5681    1630         0875                  MOVF 0x75, W                  
     5682    1631         04D6                  IORWF 0x56, F                 
     5683    1632         3004                  MOVLW 0x4                     
     5684    1633         0AD7                  INCF 0x57, F                  
     5685    1634         2E1D                  GOTO 0x61D                    
     5686    1635         0021                  MOVLB 0x1                     
     5687    1636         083F                  MOVF 0xBF, W                  
     5688    1637         00C0                  MOVWF 0xC0                    
     5689    1638         27BC                  CALL 0x7BC                    
     5690    1639         3194                  MOVLP 0x14                    
     5691    163A         3002                  MOVLW 0x2                     
     5692    163B         2F77                  GOTO 0x777                    
     5693    163C         1D70                  BTFSS 0xF0, 0x2               
     5694    163D         2E4F                  GOTO 0x64F                    
     5695    163E         0B40                  DECFSZ 0xC0, W                
     5696    163F         2E4F                  GOTO 0x64F                    
     5697    1640         3003                  MOVLW 0x3                     
     5698    1641         025A                  SUBWF 0xDA, W                 
     5699    1642         1803                  BTFSC 0x83, 0x0               
     5700    1643         2E4F                  GOTO 0x64F                    
     5701    1644         3003                  MOVLW 0x3                     
     5702    1645         0021                  MOVLB 0x1                     
     5703    1646         00CD                  MOVWF 0xCD                    
     5704    1647         0020                  MOVLB 0x0                     
     5705    1648         27E9                  CALL 0x7E9                    
     5706    1649         3194                  MOVLP 0x14                    
     5707    164A         0021                  MOVLB 0x1                     
     5708    164B         00B5                  MOVWF 0xB5                    
     5709    164C         0020                  MOVLB 0x0                     
     5710    164D         0ADA                  INCF 0x5A, F                  
     5711    164E         2F92                  GOTO 0x792                    
     5712    164F         1EF0                  BTFSS 0x70, 0x5               
     5713    1650         2E55                  GOTO 0x655                    
     5714    1651         3003                  MOVLW 0x3                     
     5715    1652         025A                  SUBWF 0x5A, W                 
     5716    1653         1C03                  BTFSS STATUS, 0x0             
     5717    1654         2E44                  GOTO 0x644                    
     5718    1655         3003                  MOVLW 0x3                     
     5719    1656         025A                  SUBWF 0x5A, W                 
     5720    1657         1C03                  BTFSS STATUS, 0x0             
     5721    1658         2ECC                  GOTO 0x6CC                    
     5722    1659         0021                  MOVLB 0x1                     
     5723    165A         01CD                  CLRF 0xCD                     
     5724    165B         0020                  MOVLB 0x0                     
     5725    165C         27C7                  CALL 0x7C7                    
     5726    165D         3194                  MOVLP 0x14                    
     5727    165E         0021                  MOVLB 0x1                     
     5728    165F         00B5                  MOVWF 0xB5                    
     5729    1660         0020                  MOVLB 0x0                     
     5730    1661         01DA                  CLRF 0x5A                     
     5731    1662         2F92                  GOTO 0x792                    
     5732    1663         1DF0                  BTFSS 0x70, 0x3               
     5733    1664         2E67                  GOTO 0x667                    
     5734    1665         1E71                  BTFSS 0x71, 0x4               
     5735    1666         2E59                  GOTO 0x659                    
     5736    1667         18F0                  BTFSC 0x70, 0x1               
     5737    1668         1C71                  BTFSS 0x71, 0x0               
     5738    1669         2E6C                  GOTO 0x66C                    
     5739    166A         1E71                  BTFSS 0x71, 0x4               
     5740    166B         2E59                  GOTO 0x659                    
     5741    166C         0840                  MOVF 0x40, W                  
     5742    166D         1D03                  BTFSS STATUS, 0x2             
     5743    166E         2E59                  GOTO 0x659                    
     5744    166F         1970                  BTFSC 0x70, 0x2               
     5745    1670         1C71                  BTFSS 0x71, 0x0               
     5746    1671         2E8B                  GOTO 0x68B                    
     5747    1672         1A71                  BTFSC 0x71, 0x4               
     5748    1673         2E8B                  GOTO 0x68B                    
     5749    1674         3003                  MOVLW 0x3                     
     5750    1675         27FB                  CALL 0x7FB                    
     5751    1676         3194                  MOVLP 0x14                    
     5752    1677         1D03                  BTFSS STATUS, 0x2             
     5753    1678         2E48                  GOTO 0x648                    
     5754    1679         1DF1                  BTFSS 0x71, 0x3               
     5755    167A         2E83                  GOTO 0x683                    
     5756    167B         0830                  MOVF 0x30, W                  
     5757    167C         022E                  SUBWF 0x2E, W                 
     5758    167D         1D03                  BTFSS STATUS, 0x2             
     5759    167E         2E81                  GOTO 0x681                    
     5760    167F         082F                  MOVF 0x2F, W                  
     5761    1680         022D                  SUBWF 0x2D, W                 
     5762    1681         1803                  BTFSC STATUS, 0x0             
     5763    1682         2E87                  GOTO 0x687                    
     5764    1683         082E                  MOVF 0x2E, W                  
     5765    1684         00B8                  MOVWF 0x38                    
     5766    1685         082D                  MOVF 0x2D, W                  
     5767    1686         2EB7                  GOTO 0x6B7                    
     5768    1687         0830                  MOVF 0x30, W                  
     5769    1688         00B8                  MOVWF 0x38                    
     5770    1689         082F                  MOVF 0x2F, W                  
     5771    168A         2EB7                  GOTO 0x6B7                    
     5772    168B         3002                  MOVLW 0x2                     
     5773    168C         0021                  MOVLB 0x1                     
     5774    168D         27DF                  CALL 0x7DF                    
     5775    168E         3194                  MOVLP 0x14                    
     5776    168F         2E5E                  GOTO 0x65E                    
     5777    1690         1E70                  BTFSS 0xF0, 0x4               
     5778    1691         2E94                  GOTO 0x694                    
     5779    1692         1E71                  BTFSS 0xF1, 0x4               
     5780    1693         2E59                  GOTO 0x659                    
     5781    1694         18F0                  BTFSC 0xF0, 0x1               
     5782    1695         1FF0                  BTFSS 0xF0, 0x7               
     5783    1696         2E99                  GOTO 0x699                    
     5784    1697         1E71                  BTFSS 0xF1, 0x4               
     5785    1698         2E59                  GOTO 0x659                    
     5786    1699         0840                  MOVF 0xC0, W                  
     5787    169A         1D03                  BTFSS 0x83, 0x2               
     5788    169B         2E59                  GOTO 0x659                    
     5789    169C         1970                  BTFSC 0xF0, 0x2               
     5790    169D         1FF0                  BTFSS 0xF0, 0x7               
     5791    169E         2EB9                  GOTO 0x6B9                    
     5792    169F         1A71                  BTFSC 0xF1, 0x4               
     5793    16A0         2EB9                  GOTO 0x6B9                    
     5794    16A1         3003                  MOVLW 0x3                     
     5795    16A2         27FB                  CALL 0x7FB                    
     5796    16A3         3194                  MOVLP 0x14                    
     5797    16A4         1D03                  BTFSS 0x83, 0x2               
     5798    16A5         2E48                  GOTO 0x648                    
     5799    16A6         1DF1                  BTFSS 0xF1, 0x3               
     5800    16A7         2EB0                  GOTO 0x6B0                    
     5801    16A8         0832                  MOVF 0xB2, W                  
     5802    16A9         0234                  SUBWF 0xB4, W                 
     5803    16AA         1D03                  BTFSS 0x83, 0x2               
     5804    16AB         2EAE                  GOTO 0x6AE                    
     5805    16AC         0831                  MOVF 0xB1, W                  
     5806    16AD         0233                  SUBWF 0xB3, W                 
     5807    16AE         1803                  BTFSC 0x83, 0x0               
     5808    16AF         2EB4                  GOTO 0x6B4                    
     5809    16B0         0832                  MOVF 0xB2, W                  
     5810    16B1         00B8                  MOVWF 0xB8                    
     5811    16B2         0831                  MOVF 0xB1, W                  
     5812    16B3         2EB7                  GOTO 0x6B7                    
     5813    16B4         0834                  MOVF 0xB4, W                  
     5814    16B5         00B8                  MOVWF 0xB8                    
     5815    16B6         0833                  MOVF 0xB3, W                  
     5816    16B7         00B7                  MOVWF 0xB7                    
     5817    16B8         2E48                  GOTO 0x648                    
     5818    16B9         0021                  MOVLB 0x1                     
     5819    16BA         01CD                  CLRF 0xCD                     
     5820    16BB         0ACD                  INCF 0xCD, F                  
     5821    16BC         01BF                  CLRF 0xBF                     
     5822    16BD         2E5B                  GOTO 0x65B                    
     5823    16BE         1970                  BTFSC 0xF0, 0x2               
     5824    16BF         2E44                  GOTO 0x644                    
     5825    16C0         1CF0                  BTFSS 0xF0, 0x1               
     5826    16C1         2E59                  GOTO 0x659                    
     5827    16C2         0021                  MOVLB 0x1                     
     5828    16C3         27BC                  CALL 0x7BC                    
     5829    16C4         3194                  MOVLP 0x14                    
     5830    16C5         01DA                  CLRF 0xDA                     
     5831    16C6         0023                  MOVLB 0x3                     
     5832    16C7         1346                  BCF 0x1C6, 0x6                
     5833    16C8         1746                  BSF 0x1C6, 0x6                
     5834    16C9         0022                  MOVLB 0x2                     
     5835    16CA         14E8                  BSF 0x168, 0x1                
     5836    16CB         2F92                  GOTO 0x792                    
     5837    16CC         083F                  MOVF 0x13F, W                 
     5838    16CD         3A01                  XORLW 0x1                     
     5839    16CE         1903                  BTFSC 0x103, 0x2              
     5840    16CF         2E90                  GOTO 0x690                    
     5841    16D0         3A03                  XORLW 0x3                     
     5842    16D1         1903                  BTFSC 0x103, 0x2              
     5843    16D2         2E63                  GOTO 0x663                    
     5844    16D3         2EBE                  GOTO 0x6BE                    
     5845    16D4         300F                  MOVLW 0xF                     
     5846    16D5         0021                  MOVLB 0x1                     
     5847    16D6         00D5                  MOVWF 0xD5                    
     5848    16D7         2F04                  GOTO 0x704                    
     5849    16D8         1870                  BTFSC 0xF0, 0x0               
     5850    16D9         18F1                  BTFSC 0xF1, 0x1               
     5851    16DA         2EE6                  GOTO 0x6E6                    
     5852    16DB         0021                  MOVLB 0x1                     
     5853    16DC         01CD                  CLRF 0xCD                     
     5854    16DD         0020                  MOVLB 0x0                     
     5855    16DE         01DA                  CLRF 0x5A                     
     5856    16DF         27C7                  CALL 0x7C7                    
     5857    16E0         3194                  MOVLP 0x14                    
     5858    16E1         0021                  MOVLB 0x1                     
     5859    16E2         00B5                  MOVWF 0xB5                    
     5860    16E3         0020                  MOVLB 0x0                     
     5861    16E4         01A0                  CLRF 0x20                     
     5862    16E5         2F92                  GOTO 0x792                    
     5863    16E6         0021                  MOVLB 0x1                     
     5864    16E7         01CD                  CLRF 0xCD                     
     5865    16E8         0020                  MOVLB 0x0                     
     5866    16E9         01DA                  CLRF 0x5A                     
     5867    16EA         27C7                  CALL 0x7C7                    
     5868    16EB         3194                  MOVLP 0x14                    
     5869    16EC         0021                  MOVLB 0x1                     
     5870    16ED         00B5                  MOVWF 0xB5                    
     5871    16EE         2EC6                  GOTO 0x6C6                    
     5872    16EF         0840                  MOVF 0xC0, W                  
     5873    16F0         1903                  BTFSC 0x83, 0x2               
     5874    16F1         2EFB                  GOTO 0x6FB                    
     5875    16F2         0021                  MOVLB 0x1                     
     5876    16F3         01CD                  CLRF 0xCD                     
     5877    16F4         0020                  MOVLB 0x0                     
     5878    16F5         01DA                  CLRF 0x5A                     
     5879    16F6         27C7                  CALL 0x7C7                    
     5880    16F7         3194                  MOVLP 0x14                    
     5881    16F8         0021                  MOVLB 0x1                     
     5882    16F9         00B5                  MOVWF 0xB5                    
     5883    16FA         2F92                  GOTO 0x792                    
     5884    16FB         0021                  MOVLB 0x1                     
     5885    16FC         01CD                  CLRF 0xCD                     
     5886    16FD         0ACD                  INCF 0xCD, F                  
     5887    16FE         0020                  MOVLB 0x0                     
     5888    16FF         01DA                  CLRF 0x5A                     
     5889    1700         0021                  MOVLB 0x1                     
     5890    1701         01B5                  CLRF 0xB5                     
     5891    1702         01B6                  CLRF 0xB6                     
     5892    1703         2F92                  GOTO 0x792                    
     5893    1704         0020                  MOVLB 0x0                     
     5894    1705         083F                  MOVF 0x3F, W                  
     5895    1706         3A00                  XORLW 0x0                     
     5896    1707         1903                  BTFSC STATUS, 0x2             
     5897    1708         2ED8                  GOTO 0x6D8                    
     5898    1709         3A01                  XORLW 0x1                     
     5899    170A         1903                  BTFSC STATUS, 0x2             
     5900    170B         2EEF                  GOTO 0x6EF                    
     5901    170C         2EF2                  GOTO 0x6F2                    
     5902    170D         0856                  MOVF 0x56, W                  
     5903    170E         0021                  MOVLB 0x1                     
     5904    170F         00D5                  MOVWF 0xD5                    
     5905    1710         0020                  MOVLB 0x0                     
     5906    1711         0840                  MOVF 0x40, W                  
     5907    1712         3A03                  XORLW 0x3                     
     5908    1713         1D03                  BTFSS STATUS, 0x2             
     5909    1714         2F1E                  GOTO 0x71E                    
     5910    1715         3002                  MOVLW 0x2                     
     5911    1716         025A                  SUBWF 0x5A, W                 
     5912    1717         1C03                  BTFSS STATUS, 0x0             
     5913    1718         2F1E                  GOTO 0x71E                    
     5914    1719         0021                  MOVLB 0x1                     
     5915    171A         27BC                  CALL 0x7BC                    
     5916    171B         3194                  MOVLP 0x14                    
     5917    171C         3003                  MOVLW 0x3                     
     5918    171D         2F77                  GOTO 0x777                    
     5919    171E         08BF                  MOVF 0xBF, F                  
     5920    171F         1D03                  BTFSS 0x83, 0x2               
     5921    1720         2F2A                  GOTO 0x72A                    
     5922    1721         3002                  MOVLW 0x2                     
     5923    1722         025A                  SUBWF 0xDA, W                 
     5924    1723         1C03                  BTFSS 0x83, 0x0               
     5925    1724         2F2A                  GOTO 0x72A                    
     5926    1725         0021                  MOVLB 0x1                     
     5927    1726         27BC                  CALL 0x7BC                    
     5928    1727         3194                  MOVLP 0x14                    
     5929    1728         3005                  MOVLW 0x5                     
     5930    1729         2F77                  GOTO 0x777                    
     5931    172A         0021                  MOVLB 0x1                     
     5932    172B         01CD                  CLRF 0xCD                     
     5933    172C         0020                  MOVLB 0x0                     
     5934    172D         27C7                  CALL 0x7C7                    
     5935    172E         3194                  MOVLP 0x14                    
     5936    172F         2E4A                  GOTO 0x64A                    
     5937    1730         0856                  MOVF 0x56, W                  
     5938    1731         0021                  MOVLB 0x1                     
     5939    1732         00D5                  MOVWF 0xD5                    
     5940    1733         2F49                  GOTO 0x749                    
     5941    1734         3002                  MOVLW 0x2                     
     5942    1735         27DF                  CALL 0x7DF                    
     5943    1736         3194                  MOVLP 0x14                    
     5944    1737         0021                  MOVLB 0x1                     
     5945    1738         00B5                  MOVWF 0xB5                    
     5946    1739         3007                  MOVLW 0x7                     
     5947    173A         0020                  MOVLB 0x0                     
     5948    173B         025A                  SUBWF 0x5A, W                 
     5949    173C         1C03                  BTFSS STATUS, 0x0             
     5950    173D         2E4C                  GOTO 0x64C                    
     5951    173E         0020                  MOVLB 0x0                     
     5952    173F         3004                  MOVLW 0x4                     
     5953    1740         2F77                  GOTO 0x777                    
     5954    1741         0856                  MOVF 0x56, W                  
     5955    1742         0021                  MOVLB 0x1                     
     5956    1743         00D5                  MOVWF 0xD5                    
     5957    1744         0020                  MOVLB 0x0                     
     5958    1745         083F                  MOVF 0x3F, W                  
     5959    1746         1903                  BTFSC STATUS, 0x2             
     5960    1747         2F52                  GOTO 0x752                    
     5961    1748         0021                  MOVLB 0x1                     
     5962    1749         0B40                  DECFSZ 0xC0, W                
     5963    174A         2F34                  GOTO 0x734                    
     5964    174B         01CD                  CLRF 0xCD                     
     5965    174C         0ACD                  INCF 0xCD, F                  
     5966    174D         01BF                  CLRF 0xBF                     
     5967    174E         0020                  MOVLB 0x0                     
     5968    174F         27C7                  CALL 0x7C7                    
     5969    1750         3194                  MOVLP 0x14                    
     5970    1751         2F37                  GOTO 0x737                    
     5971    1752         085A                  MOVF 0x5A, W                  
     5972    1753         1903                  BTFSC STATUS, 0x2             
     5973    1754         2E59                  GOTO 0x659                    
     5974    1755         0021                  MOVLB 0x1                     
     5975    1756         0B40                  DECFSZ 0xC0, W                
     5976    1757         2F5F                  GOTO 0x75F                    
     5977    1758         01CD                  CLRF 0xCD                     
     5978    1759         0ACD                  INCF 0xCD, F                  
     5979    175A         01BF                  CLRF 0xBF                     
     5980    175B         0020                  MOVLB 0x0                     
     5981    175C         27C7                  CALL 0x7C7                    
     5982    175D         3194                  MOVLP 0x14                    
     5983    175E         2F62                  GOTO 0x762                    
     5984    175F         3002                  MOVLW 0x2                     
     5985    1760         27DF                  CALL 0x7DF                    
     5986    1761         3194                  MOVLP 0x14                    
     5987    1762         0021                  MOVLB 0x1                     
     5988    1763         00B5                  MOVWF 0xB5                    
     5989    1764         2F3E                  GOTO 0x73E                    
     5990    1765         0856                  MOVF 0xD6, W                  
     5991    1766         0021                  MOVLB 0x1                     
     5992    1767         00D5                  MOVWF 0xD5                    
     5993    1768         3003                  MOVLW 0x3                     
     5994    1769         0020                  MOVLB 0x0                     
     5995    176A         025A                  SUBWF 0x5A, W                 
     5996    176B         3003                  MOVLW 0x3                     
     5997    176C         1C03                  BTFSS STATUS, 0x0             
     5998    176D         2E45                  GOTO 0x645                    
     5999    176E         0021                  MOVLB 0x1                     
     6000    176F         00CD                  MOVWF 0xCD                    
     6001    1770         0020                  MOVLB 0x0                     
     6002    1771         27E9                  CALL 0x7E9                    
     6003    1772         3194                  MOVLP 0x14                    
     6004    1773         0021                  MOVLB 0x1                     
     6005    1774         00B5                  MOVWF 0xB5                    
     6006    1775         0020                  MOVLB 0x0                     
     6007    1776         3006                  MOVLW 0x6                     
     6008    1777         01DA                  CLRF 0x5A                     
     6009    1778         00A0                  MOVWF 0x20                    
     6010    1779         2F92                  GOTO 0x792                    
     6011    177A         0856                  MOVF 0x56, W                  
     6012    177B         0021                  MOVLB 0x1                     
     6013    177C         00D5                  MOVWF 0xD5                    
     6014    177D         0020                  MOVLB 0x0                     
     6015    177E         08BF                  MOVF 0x3F, F                  
     6016    177F         1D03                  BTFSS STATUS, 0x2             
     6017    1780         2E59                  GOTO 0x659                    
     6018    1781         0021                  MOVLB 0x1                     
     6019    1782         27BC                  CALL 0x7BC                    
     6020    1783         3194                  MOVLP 0x14                    
     6021    1784         01DA                  CLRF 0xDA                     
     6022    1785         01A0                  CLRF 0xA0                     
     6023    1786         2EC6                  GOTO 0x6C6                    
     6024    1787         0020                  MOVLB 0x0                     
     6025    1788         0820                  MOVF 0x20, W                  
     6026    1789         0084                  MOVWF FSR0                    
     6027    178A         3007                  MOVLW 0x7                     
     6028    178B         0204                  SUBWF FSR0, W                 
     6029    178C         1803                  BTFSC STATUS, 0x0             
     6030    178D         2F92                  GOTO 0x792                    
     6031    178E         3187                  MOVLP 0x7                     
     6032    178F         3504                  LSLF FSR0, W                  
     6033    1790         3EF1                  ADDLW 0xF1                    
     6034    1791         0082                  MOVWF PCL                     
     6035    1792         30C3                  MOVLW 0xC3                    
     6036    1793         0023                  MOVLB 0x3                     
     6037    1794         05C6                  ANDWF 0x1C6, F                
     6038    1795         0021                  MOVLB 0x1                     
     6039    1796         0855                  MOVF 0xD5, W                  
     6040    1797         0709                  ADDWF 0x89, W                 
     6041    1798         0709                  ADDWF 0x89, W                 
     6042    1799         0023                  MOVLB 0x3                     
     6043    179A         04C6                  IORWF 0x1C6, F                
     6044    179B         0022                  MOVLB 0x2                     
     6045    179C         14E8                  BSF 0x168, 0x1                
     6046    179D         0023                  MOVLB 0x3                     
     6047    179E         01C4                  CLRF 0x1C4                    
     6048    179F         01C5                  CLRF 0x1C5                    
     6049    17A0         0021                  MOVLB 0x1                     
     6050    17A1         0835                  MOVF 0xB5, W                  
     6051    17A2         0023                  MOVLB 0x3                     
     6052    17A3         04C4                  IORWF 0x1C4, F                
     6053    17A4         0021                  MOVLB 0x1                     
     6054    17A5         0836                  MOVF 0xB6, W                  
     6055    17A6         0023                  MOVLB 0x3                     
     6056    17A7         04C5                  IORWF 0x1C5, F                
     6057    17A8         0022                  MOVLB 0x2                     
     6058    17A9         30FC                  MOVLW 0xFC                    
     6059    17AA         14E8                  BSF 0x168, 0x1                
     6060    17AB         0023                  MOVLB 0x3                     
     6061    17AC         05C6                  ANDWF 0x1C6, F                
     6062    17AD         0021                  MOVLB 0x1                     
     6063    17AE         084D                  MOVF 0xCD, W                  
     6064    17AF         0023                  MOVLB 0x3                     
     6065    17B0         04C6                  IORWF 0x1C6, F                
     6066    17B1         0022                  MOVLB 0x2                     
     6067    17B2         14E8                  BSF 0x168, 0x1                
     6068    17B3         0008                  RETURN                        
     6069    17B4         00F4                  MOVWF 0x174                   
     6070    17B5         0020                  MOVLB 0x0                     
     6071    17B6         0240                  SUBWF 0x40, W                 
     6072    17B7         1803                  BTFSC STATUS, 0x0             
     6073    17B8         0008                  RETURN                        
     6074    17B9         0874                  MOVF 0x74, W                  
     6075    17BA         00C0                  MOVWF 0x40                    
     6076    17BB         0008                  RETURN                        
     6077    17BC         01CD                  CLRF 0x4D                     
     6078    17BD         0020                  MOVLB 0x0                     
     6079    17BE         0830                  MOVF 0x30, W                  
     6080    17BF         0021                  MOVLB 0x1                     
     6081    17C0         00B6                  MOVWF 0xB6                    
     6082    17C1         0020                  MOVLB 0x0                     
     6083    17C2         082F                  MOVF 0x2F, W                  
     6084    17C3         0021                  MOVLB 0x1                     
     6085    17C4         00B5                  MOVWF 0xB5                    
     6086    17C5         0020                  MOVLB 0x0                     
     6087    17C6         0008                  RETURN                        
     6088    17C7         0830                  MOVF 0x30, W                  
     6089    17C8         0021                  MOVLB 0x1                     
     6090    17C9         00B6                  MOVWF 0xB6                    
     6091    17CA         0020                  MOVLB 0x0                     
     6092    17CB         082F                  MOVF 0x2F, W                  
     6093    17CC         0008                  RETURN                        
     6094    17CD         3BF8                  SUBWFB 0x78, F                
     6095    17CE         300F                  MOVLW 0xF                     
     6096    17CF         02F7                  SUBWF 0x77, F                 
     6097    17D0         3000                  MOVLW 0x0                     
     6098    17D1         3BF8                  SUBWFB 0x78, F                
     6099    17D2         0878                  MOVF 0x78, W                  
     6100    17D3         00F6                  MOVWF 0x76                    
     6101    17D4         0877                  MOVF 0x77, W                  
     6102    17D5         00F5                  MOVWF 0x75                    
     6103    17D6         35F5                  LSLF 0x75, F                  
     6104    17D7         0DF6                  RLF 0x76, F                   
     6105    17D8         0875                  MOVF 0x75, W                  
     6106    17D9         07F7                  ADDWF 0x77, F                 
     6107    17DA         0876                  MOVF 0x76, W                  
     6108    17DB         3DF8                  ADDWFC 0x78, F                
     6109    17DC         3018                  MOVLW 0x18                    
     6110    17DD         07F7                  ADDWF 0x77, F                 
     6111    17DE         0008                  RETURN                        
     6112    17DF         00CD                  MOVWF 0x4D                    
     6113    17E0         01BF                  CLRF 0x3F                     
     6114    17E1         0ABF                  INCF 0x3F, F                  
     6115    17E2         0020                  MOVLB 0x0                     
     6116    17E3         0834                  MOVF 0x34, W                  
     6117    17E4         0021                  MOVLB 0x1                     
     6118    17E5         00B6                  MOVWF 0xB6                    
     6119    17E6         0020                  MOVLB 0x0                     
     6120    17E7         0833                  MOVF 0x33, W                  
     6121    17E8         0008                  RETURN                        
     6122    17E9         0838                  MOVF 0x38, W                  
     6123    17EA         0021                  MOVLB 0x1                     
     6124    17EB         00B6                  MOVWF 0xB6                    
     6125    17EC         0020                  MOVLB 0x0                     
     6126    17ED         0837                  MOVF 0x37, W                  
     6127    17EE         0008                  RETURN                        
     6128    17EF         00B7                  MOVWF 0x37                    
     6129    17F0         0877                  MOVF 0x77, W                  
     6130    17F1         07B7                  ADDWF 0x37, F                 
     6131    17F2         0878                  MOVF 0x78, W                  
     6132    17F3         3DB8                  ADDWFC 0x38, F                
     6133    17F4         0008                  RETURN                        
     6134    17F5         00B7                  MOVWF 0x37                    
     6135    17F6         0877                  MOVF 0x77, W                  
     6136    17F7         02B7                  SUBWF 0x37, F                 
     6137    17F8         0878                  MOVF 0x78, W                  
     6138    17F9         3BB8                  SUBWFB 0x38, F                
     6139    17FA         0008                  RETURN                        
     6140    17FB         0021                  MOVLB 0x1                     
     6141    17FC         00CD                  MOVWF 0xCD                    
     6142    17FD         0020                  MOVLB 0x0                     
     6143    17FE         08DA                  MOVF 0x5A, F                  
     6144    17FF         0008                  RETURN                        
     6145    1800         3180                  MOVLP 0x0                     
     6146    1801         2822                  GOTO 0x22                     
     6147    1802         3180                  MOVLP 0x0                     
     6148    1803         286C                  GOTO 0x6C                     
     6149    1804         3180                  MOVLP 0x0                     
     6150    1805         2824                  GOTO 0x24                     
     6151    1806         3180                  MOVLP 0x0                     
     6152    1807         28C2                  GOTO 0xC2                     
     6153    1808         3180                  MOVLP 0x0                     
     6154    1809         2824                  GOTO 0x24                     
     6155    180A         3181                  MOVLP 0x1                     
     6156    180B         2919                  GOTO 0x119                    
     6157    180C         3180                  MOVLP 0x0                     
     6158    180D         2824                  GOTO 0x24                     
     6159    180E         3181                  MOVLP 0x1                     
     6160    180F         2937                  GOTO 0x137                    
     6161    1810         3193                  MOVLP 0x13                    
     6162    1811         2BDA                  GOTO 0x3DA                    
     6163    1812         3193                  MOVLP 0x13                    
     6164    1813         2BD6                  GOTO 0x3D6                    
     6165    1814         3193                  MOVLP 0x13                    
     6166    1815         2BD2                  GOTO 0x3D2                    
     6167    1816         3193                  MOVLP 0x13                    
     6168    1817         2BCE                  GOTO 0x3CE                    
     6169    1818         3193                  MOVLP 0x13                    
     6170    1819         2BCA                  GOTO 0x3CA                    
     6171    181A         3193                  MOVLP 0x13                    
     6172    181B         2BC6                  GOTO 0x3C6                    
     6173    181C         3193                  MOVLP 0x13                    
     6174    181D         2BC2                  GOTO 0x3C2                    
     6175    181E         3193                  MOVLP 0x13                    
     6176    181F         2BBE                  GOTO 0x3BE                    
     6177    1820         318E                  MOVLP 0xE                     
     6178    1821         2EC8                  GOTO 0x6C8                    
     6179    1822         318D                  MOVLP 0xD                     
     6180    1823         2D9A                  GOTO 0x59A                    
     6181    1824         318E                  MOVLP 0xE                     
     6182    1825         2EC0                  GOTO 0x6C0                    
     6183    1826         318E                  MOVLP 0xE                     
     6184    1827         2EC5                  GOTO 0x6C5                    
     6185    1828         318E                  MOVLP 0xE                     
     6186    1829         2EB0                  GOTO 0x6B0                    
     6187    182A         318E                  MOVLP 0xE                     
     6188    182B         2EB5                  GOTO 0x6B5                    
     6189    182C         318C                  MOVLP 0xC                     
     6190    182D         2CB6                  GOTO 0x4B6                    
     6191    182E         318D                  MOVLP 0xD                     
     6192    182F         2D91                  GOTO 0x591                    
     6193    1830         318C                  MOVLP 0xC                     
     6194    1831         2CF5                  GOTO 0x4F5                    
     6195    1832         318D                  MOVLP 0xD                     
     6196    1833         2D44                  GOTO 0x544                    
     6197    1834         318C                  MOVLP 0xC                     
     6198    1835         2CE3                  GOTO 0x4E3                    
     6199    1836         3186                  MOVLP 0x6                     
     6200    1837         2ED1                  GOTO 0x6D1                    
     6201    1838         3186                  MOVLP 0x6                     
     6202    1839         2ED5                  GOTO 0x6D5                    
     6203    183A         3186                  MOVLP 0x6                     
     6204    183B         2ED9                  GOTO 0x6D9                    
     6205    183C         3186                  MOVLP 0x6                     
     6206    183D         2EDD                  GOTO 0x6DD                    
     6207    183E         3186                  MOVLP 0x6                     
     6208    183F         2EE1                  GOTO 0x6E1                    
               
    ######MARKER########     1.979 NOPs       

     8187    1FFA         00FE                  MOVWF 0x7E    	W nach 0x7E   |Swap low high nibble
     8188    1FFB         0012                  MOVIW FSR0++                  |
     8189    1FFC         001E                  MOVWI FSR1++                  |
     8190    1FFD         0BFE                  DECFSZ 0x7E, F                |
     8191    1FFE         2FFB                  GOTO 0x7FB                    |
     8192    1FFF         3400                  RETLW 0x0                     |
              
    ######MARKER######## 6145 NOPs           

               
    14334    37FD         3FFF                  MOVWI [-1]FSR1                
    14335    37FE         3FFF                  MOVWI [-1]FSR1                
    14336    37FF         3FFF                  MOVWI [-1]FSR1                
    14337    3800         31B8                  MOVLP 0x38                    
    14338    3801         280D                  GOTO 0xD                      
    14339    3802         3FFF                  MOVWI [-1]FSR1                
    14340    3803         3FFF                  MOVWI [-1]FSR1                
    14341    3804         31B8                  MOVLP 0x38                    
    14342    3805         0020                  MOVLB 0x0                     
    14343    3806         1E91                  BTFSS PIR1, 0x5               
    14344    3807         0009                  RETFIE                        
    14345    3808         31BB                  MOVLP 0x3B                    
    14346    3809         233A                  CALL 0x33A                    
    14347    380A         0020                  MOVLB 0x0                     
    14348    380B         1291                  BCF PIR1, 0x5                 
    14349    380C         0009                  RETFIE                        
    14350    380D         31B8                  MOVLP 0x38                    
    14351    380E         2810                  GOTO 0x10                     
    14352    380F         2A9C                  GOTO 0x29C                    
    14353    3810         3021                  MOVLW 0x21                    
    14354    3811         01FA                  CLRF 0x7A                     
    14355    3812         0084                  MOVWF FSR0                    
    14356    3813         3000                  MOVLW 0x0                     
    14357    3814         0085                  MOVWF FSR0H                   
    14358    3815         3027                  MOVLW 0x27                    
    14359    3816         31BB                  MOVLP 0x3B                    
    14360    3817         23D0                  CALL 0x3D0                    
    14361    3818         31B8                  MOVLP 0x38                    
    14362    3819         30A0                  MOVLW 0xA0                    
    14363    381A         0084                  MOVWF FSR0                    
    14364    381B         3000                  MOVLW 0x0                     
    14365    381C         0085                  MOVWF FSR0H                   
    14366    381D         3010                  MOVLW 0x10                    
    14367    381E         31BB                  MOVLP 0x3B                    
    14368    381F         23D0                  CALL 0x3D0                    
    14369    3820         31B8                  MOVLP 0x38                    
    14370    3821         30FF                  MOVLW 0xFF                    
    14371    3822         00FB                  MOVWF 0x7B                    
    14372    3823         30BA                  MOVLW 0xBA                    
    14373    3824         0084                  MOVWF FSR0                    
    14374    3825         30BB                  MOVLW 0xBB                    
    14375    3826         0085                  MOVWF FSR0H                   
    14376    3827         3048                  MOVLW 0x48                    
    14377    3828         0086                  MOVWF FSR1                    
    14378    3829         3000                  MOVLW 0x0                     
    14379    382A         0087                  MOVWF FSR1H                   
    14380    382B         3016                  MOVLW 0x16                    
    14381    382C         31BB                  MOVLP 0x3B                    
    14382    382D         23D6                  CALL 0x3D6                    
    14383    382E         31B8                  MOVLP 0x38                    
    14384    382F         0020                  MOVLB 0x0                     
    14385    3830         2831                  GOTO 0x31                     
    14386    3831         20D3                  CALL 0xD3                     
    14387    3832         31B8                  MOVLP 0x38                    
    14388    3833         0064                  CLRWDT                        
    14389    3834         0020                  MOVLB 0x0                     
    14390    3835         1091                  BCF PIR1, 0x1                 
    14391    3836         170B                  BSF INTCON, 0x6               
    14392    3837         178B                  BSF INTCON, 0x7               
    14393    3838         0020                  MOVLB 0x0                     
    14394    3839         1C91                  BTFSS PIR1, 0x1               
    14395    383A         2838                  GOTO 0x38                     
    14396    383B         1091                  BCF PIR1, 0x1                 
    14397    383C         0ABB                  INCF 0x3B, F                  
    14398    383D         2041                  CALL 0x41                     
    14399    383E         31B8                  MOVLP 0x38                    
    14400    383F         0064                  CLRWDT                        
    14401    3840         2838                  GOTO 0x38                     
    14402    3841         1C30                  BTFSS 0x30, 0x0               
    14403    3842         2846                  GOTO 0x46                     
    14404    3843         2051                  CALL 0x51                     
    14405    3844         31B8                  MOVLP 0x38                    
    14406    3845         1030                  BCF 0x30, 0x0                 
    14407    3846         1CD9                  BTFSS 0x59, 0x1               
    14408    3847         284A                  GOTO 0x4A                     
    14409    3848         01B6                  CLRF 0x36                     
    14410    3849         10D9                  BCF 0x59, 0x1                 
    14411    384A         3007                  MOVLW 0x7                     
    14412    384B         023B                  SUBWF 0x3B, W                 
    14413    384C         1C03                  BTFSS STATUS, 0x0             
    14414    384D         0008                  RETURN                        
    14415    384E         2249                  CALL 0x249                    
    14416    384F         01BB                  CLRF 0x3B                     
    14417    3850         0008                  RETURN                        
    14418    3851         01ED                  CLRF 0x6D                     
    14419    3852         01EE                  CLRF 0x6E                     
    14420    3853         0832                  MOVF 0x32, W                  
    14421    3854         3A00                  XORLW 0x0                     
    14422    3855         1903                  BTFSC STATUS, 0x2             
    14423    3856         28D2                  GOTO 0xD2                     
    14424    3857         3A01                  XORLW 0x1                     
    14425    3858         1903                  BTFSC STATUS, 0x2             
    14426    3859         2867                  GOTO 0x67                     
    14427    385A         3A03                  XORLW 0x3                     
    14428    385B         1903                  BTFSC STATUS, 0x2             
    14429    385C         287C                  GOTO 0x7C                     
    14430    385D         3A01                  XORLW 0x1                     
    14431    385E         1903                  BTFSC STATUS, 0x2             
    14432    385F         2880                  GOTO 0x80                     
    14433    3860         3A07                  XORLW 0x7                     
    14434    3861         1903                  BTFSC STATUS, 0x2             
    14435    3862         2890                  GOTO 0x90                     
    14436    3863         3A02                  XORLW 0x2                     
    14437    3864         1903                  BTFSC STATUS, 0x2             
    14438    3865         28C8                  GOTO 0xC8                     
    14439    3866         28D2                  GOTO 0xD2                     
    14440    3867         082F                  MOVF 0x2F, W                  
    14441    3868         3A55                  XORLW 0x55                    
    14442    3869         1D03                  BTFSS STATUS, 0x2             
    14443    386A         2875                  GOTO 0x75                     
    14444    386B         3002                  MOVLW 0x2                     
    14445    386C         00B2                  MOVWF 0x32                    
    14446    386D         0B2A                  DECFSZ 0x2A, W                
    14447    386E         0008                  RETURN                        
    14448    386F         082D                  MOVF 0x2D, W                  
    14449    3870         0023                  MOVLB 0x3                     
    14450    3871         009A                  MOVWF TXREG                   
    14451    3872         0020                  MOVLB 0x0                     
    14452    3873         01AA                  CLRF 0x2A                     
    14453    3874         0008                  RETURN                        
    14454    3875         2101                  CALL 0x101                    
    14455    3876         0020                  MOVLB 0x0                     
    14456    3877         01B2                  CLRF 0x32                     
    14457    3878         13D2                  BCF 0x52, 0x7                 
    14458    3879         17D2                  BSF 0x52, 0x7                 
    14459    387A         14DC                  BSF 0x5C, 0x1                 
    14460    387B         0008                  RETURN                        
    14461    387C         01B2                  CLRF 0x32                     
    14462    387D         1628                  BSF 0x28, 0x4                 
    14463    387E         082F                  MOVF 0x2F, W                  
    14464    387F         2918                  GOTO 0x118                    
    14465    3880         303D                  MOVLW 0x3D                    
    14466    3881         00F8                  MOVWF 0x78                    
    14467    3882         0833                  MOVF 0x33, W                  
    14468    3883         02F8                  SUBWF 0x78, F                 
    14469    3884         082C                  MOVF 0x2C, W                  
    14470    3885         0778                  ADDWF 0x78, W                 
    14471    3886         00F9                  MOVWF 0x79                    
    14472    3887         0086                  MOVWF FSR1                    
    14473    3888         0187                  CLRF FSR1H                    
    14474    3889         082F                  MOVF 0x2F, W                  
    14475    388A         0081                  MOVWF INDF1                   
    14476    388B         0BB3                  DECFSZ 0x33, F                
    14477    388C         0008                  RETURN                        
    14478    388D         3004                  MOVLW 0x4                     
    14479    388E         00B2                  MOVWF 0x32                    
    14480    388F         0008                  RETURN                        
    14481    3890         082F                  MOVF 0x2F, W                  
    14482    3891         00C5                  MOVWF 0x45                    
    14483    3892         0834                  MOVF 0x34, W                  
    14484    3893         3A14                  XORLW 0x14                    
    14485    3894         1D03                  BTFSS STATUS, 0x2             
    14486    3895         2899                  GOTO 0x99                     
    14487    3896         083C                  MOVF 0x3C, W                  
    14488    3897         00ED                  MOVWF 0x6D                    
    14489    3898         01EE                  CLRF 0x6E                     
    14490    3899         01EB                  CLRF 0x6B                     
    14491    389A         01EC                  CLRF 0x6C                     
    14492    389B         082C                  MOVF 0x2C, W                  
    14493    389C         00F8                  MOVWF 0x78                    
    14494    389D         01F9                  CLRF 0x79                     
    14495    389E         0879                  MOVF 0x79, W                  
    14496    389F         026C                  SUBWF 0x6C, W                 
    14497    38A0         1D03                  BTFSS STATUS, 0x2             
    14498    38A1         28A4                  GOTO 0xA4                     
    14499    38A2         0878                  MOVF 0x78, W                  
    14500    38A3         026B                  SUBWF 0x6B, W                 
    14501    38A4         1803                  BTFSC STATUS, 0x0             
    14502    38A5         28B8                  GOTO 0xB8                     
    14503    38A6         086B                  MOVF 0x6B, W                  
    14504    38A7         3E3D                  ADDLW 0x3D                    
    14505    38A8         0086                  MOVWF FSR1                    
    14506    38A9         0187                  CLRF FSR1H                    
    14507    38AA         0801                  MOVF INDF1, W                 
    14508    38AB         07ED                  ADDWF 0x6D, F                 
    14509    38AC         1803                  BTFSC STATUS, 0x0             
    14510    38AD         0AEE                  INCF 0x6E, F                  
    14511    38AE         086E                  MOVF 0x6E, W                  
    14512    38AF         00EA                  MOVWF 0x6A                    
    14513    38B0         07ED                  ADDWF 0x6D, F                 
    14514    38B1         1803                  BTFSC STATUS, 0x0             
    14515    38B2         0AEE                  INCF 0x6E, F                  
    14516    38B3         01EE                  CLRF 0x6E                     
    14517    38B4         0AEB                  INCF 0x6B, F                  
    14518    38B5         1903                  BTFSC STATUS, 0x2             
    14519    38B6         0AEC                  INCF 0x6C, F                  
    14520    38B7         289B                  GOTO 0x9B                     
    14521    38B8         096D                  COMF 0x6D, W                  
    14522    38B9         00ED                  MOVWF 0x6D                    
    14523    38BA         01EE                  CLRF 0x6E                     
    14524    38BB         082F                  MOVF 0x2F, W                  
    14525    38BC         00F8                  MOVWF 0x78                    
    14526    38BD         01F9                  CLRF 0x79                     
    14527    38BE         086E                  MOVF 0x6E, W                  
    14528    38BF         0679                  XORWF 0x79, W                 
    14529    38C0         1D03                  BTFSS STATUS, 0x2             
    14530    38C1         28C4                  GOTO 0xC4                     
    14531    38C2         086D                  MOVF 0x6D, W                  
    14532    38C3         0678                  XORWF 0x78, W                 
    14533    38C4         1D03                  BTFSS STATUS, 0x2             
    14534    38C5         2876                  GOTO 0x76                     
    14535    38C6         01B2                  CLRF 0x32                     
    14536    38C7         29F5                  GOTO 0x1F5                    
    14537    38C8         0823                  MOVF 0x23, W                  
    14538    38C9         062F                  XORWF 0x2F, W                 
    14539    38CA         1903                  BTFSC STATUS, 0x2             
    14540    38CB         28D0                  GOTO 0xD0                     
    14541    38CC         30FC                  MOVLW 0xFC                    
    14542    38CD         01B2                  CLRF 0x32                     
    14543    38CE         05AE                  ANDWF 0x2E, F                 
    14544    38CF         2878                  GOTO 0x78                     
    14545    38D0         01B2                  CLRF 0x32                     
    14546    38D1         2A40                  GOTO 0x240                    
    14547    38D2         0008                  RETURN                        
    14548    38D3         0064                  CLRWDT                        
    14549    38D4         20DB                  CALL 0xDB                     
    14550    38D5         31B8                  MOVLP 0x38                    
    14551    38D6         0023                  MOVLB 0x3                     
    14552    38D7         161F                  BSF BAUDCON, 0x4              
    14553    38D8         0064                  CLRWDT                        
    14554    38D9         229C                  CALL 0x29C                    
    14555    38DA         0008                  RETURN    

// inti2                     
    14556    38DB         307B                  MOVLW 0x7B                    
    14557    38DC         0021                  MOVLB 0x1                     
    14558    38DD         0099                  MOVWF OSCCON       	OSZI SET  0x7B   16 MHz HF       
    14559    38DE         300B                  MOVLW 0xB                     
    14560    38DF         0097                  MOVWF WDTCON      SET to 32ms/0xb            
    14561    38E0         30D2                  MOVLW 0xD2                    
    14562    38E1         0095                  MOVWF OPTION_REG              
    14563    38E2         3031                  MOVLW 0x31                    
    14564    38E3         0020                  MOVLB 0x0                     
    14565    38E4         009B                  MOVWF PR2                     
    14566    38E5         304C                  MOVLW 0x4C                    
    14567    38E6         009C                  MOVWF T2CON                   
    14568    38E7         30C2                  MOVLW 0xC2                    
    14569    38E8         0022                  MOVLB 0x2                     
    14570    38E9         0097                  MOVWF FVRCON            UNUSED?      
    14571    38EA         018C                  CLRF LATA                     
    14572    38EB         018D                  CLRF LATB                     
    14573    38EC         018E                  CLRF LATC                     
    14574    38ED         3003                  MOVLW 0x3                     
    14575    38EE         0021                  MOVLB 0x1                     
    14576    38EF         008C                  MOVWF TRISA                   
    14577    38F0         30CF                  MOVLW 0xCF                    
    14578    38F1         008D                  MOVWF TRISB                   
    14579    38F2         3082                  MOVLW 0x82                    
    14580    38F3         008E                  MOVWF TRISC                   
    14581    38F4         3040                  MOVLW 0x40                    
    14582    38F5         0023                  MOVLB 0x3                     
    14583    38F6         008C                  MOVWF ANSELA                  
    14584    38F7         018D                  CLRF ANSELB                   
    14585    38F8         0024                  MOVLB 0x4                     
    14586    38F9         018D                  CLRF WPUB                     
    14587    38FA         0190                  CLRF WPUE                     
    14588    38FB         3090                  MOVLW 0x90                    
    14589    38FC         0021                  MOVLB 0x1                     
    14590    38FD         009E                  MOVWF ADCON1                  
    14591    38FE         3001                  MOVLW 0x1                     
    14592    38FF         009D                  MOVWF ADCON0                  
    14593    3900         0008                  RETURN                        
    14594    3901         0023                  MOVLB 0x3                     
    14595    3902         139D                  BCF RCSTA, 0x7                
    14596    3903         121E                  BCF TXSTA, 0x4                
    14597    3904         151E                  BSF TXSTA, 0x2                
    14598    3905         159F                  BSF BAUDCON, 0x3              
    14599    3906         30CF                  MOVLW 0xCF                    
    14600    3907         009B                  MOVWF SP1BRG                  
    14601    3908         019C                  CLRF SP1BRGH                  
    14602    3909         109F                  BCF BAUDCON, 0x1              
    14603    390A         101F                  BCF BAUDCON, 0x0              
    14604    390B         119E                  BCF TXSTA, 0x3                
    14605    390C         119D                  BCF RCSTA, 0x3                
    14606    390D         161D                  BSF RCSTA, 0x4                
    14607    390E         129E                  BCF TXSTA, 0x5                
    14608    390F         0020                  MOVLB 0x0                     
    14609    3910         1291                  BCF PIR1, 0x5                 
    14610    3911         0021                  MOVLB 0x1                     
    14611    3912         1691                  BSF PIE1, 0x5                 
    14612    3913         170B                  BSF 0x8B, 0x6                 
    14613    3914         178B                  BSF 0x8B, 0x7                 
    14614    3915         0023                  MOVLB 0x3                     
    14615    3916         179D                  BSF RCSTA, 0x7                
    14616    3917         0008                  RETURN                        
    14617    3918         00E8                  MOVWF 0x1E8                   
    14618    3919         00FA                  MOVWF 0x1FA                   
    14619    391A         296D                  GOTO 0x16D                    
    14620    391B         30FB                  MOVLW 0xFB                    
    14621    391C         00FB                  MOVWF 0x1FB                   
    14622    391D         0868                  MOVF 0x1E8, W                 
    14623    391E         00BC                  MOVWF 0x1BC                   
    14624    391F         3008                  MOVLW 0x8                     
    14625    3920         00F2                  MOVWF 0x1F2                   
    14626    3921         300D                  MOVLW 0xD                     
    14627    3922         298F                  GOTO 0x18F                    
    14628    3923         082B                  MOVF 0x1AB, W                 
    14629    3924         1903                  BTFSC 0x183, 0x2              
    14630    3925         0008                  RETURN                        
    14631    3926         01AB                  CLRF 0x1AB                    
    14632    3927         0868                  MOVF 0x1E8, W                 
    14633    3928         00BC                  MOVWF 0x1BC                   
    14634    3929         30A8                  MOVLW 0xA8                    
    14635    392A         00E4                  MOVWF 0x1E4                   
    14636    392B         3008                  MOVLW 0x8                     
    14637    392C         00E5                  MOVWF 0x1E5                   
    14638    392D         300D                  MOVLW 0xD                     
    14639    392E         297C                  GOTO 0x17C                    
    14640    392F         3058                  MOVLW 0x58                    
    14641    3930         00E9                  MOVWF 0x1E9                   
    14642    3931         01E7                  CLRF 0x1E7                    
    14643    3932         0869                  MOVF 0x1E9, W                 
    14644    3933         0086                  MOVWF 0x186                   
    14645    3934         0187                  CLRF 0x187                    
    14646    3935         0801                  MOVF 0x181, W                 
    14647    3936         0668                  XORWF 0x1E8, W                
    14648    3937         1D03                  BTFSS 0x183, 0x2              
    14649    3938         2962                  GOTO 0x162                    
    14650    3939         0867                  MOVF 0x1E7, W                 
    14651    393A         00FB                  MOVWF 0x1FB                   
    14652    393B         0A69                  INCF 0x1E9, W                 
    14653    393C         0086                  MOVWF 0x186                   
    14654    393D         1F81                  BTFSS 0x181, 0x7              
    14655    393E         2941                  GOTO 0x141                    
    14656    393F         3014                  MOVLW 0x14                    
    14657    3940         2942                  GOTO 0x142                    
    14658    3941         300D                  MOVLW 0xD                     
    14659    3942         00E6                  MOVWF 0x1E6                   
    14660    3943         0A69                  INCF 0x1E9, W                 
    14661    3944         0086                  MOVWF 0x186                   
    14662    3945         0187                  CLRF 0x187                    
    14663    3946         087A                  MOVF 0x1FA, W                 
    14664    3947         00BC                  MOVWF 0x1BC                   
    14665    3948         1C01                  BTFSS 0x181, 0x0              
    14666    3949         295B                  GOTO 0x15B                    
    14667    394A         0867                  MOVF 0x1E7, W                 
    14668    394B         0709                  ADDWF 0x189, W                
    14669    394C         0709                  ADDWF 0x189, W                
    14670    394D         0709                  ADDWF 0x189, W                
    14671    394E         3E48                  ADDLW 0x48                    
    14672    394F         00E4                  MOVWF 0x1E4                   
    14673    3950         0869                  MOVF 0x1E9, W                 
    14674    3951         0086                  MOVWF 0x186                   
    14675    3952         3F42                  MOVIW [2]FSR1                 
    14676    3953         00E5                  MOVWF 0x1E5                   
    14677    3954         0866                  MOVF 0x1E6, W                 
    14678    3955         217C                  CALL 0x17C                    
    14679    3956         0A69                  INCF 0x1E9, W                 
    14680    3957         0086                  MOVWF 0x186                   
    14681    3958         0187                  CLRF 0x187                    
    14682    3959         1081                  BCF 0x181, 0x1                
    14683    395A         0008                  RETURN                        
    14684    395B         0869                  MOVF 0x1E9, W                 
    14685    395C         0086                  MOVWF 0x186                   
    14686    395D         0187                  CLRF 0x187                    
    14687    395E         3F42                  MOVIW [2]FSR1                 
    14688    395F         00F2                  MOVWF 0x1F2                   
    14689    3960         0866                  MOVF 0x1E6, W                 
    14690    3961         298F                  GOTO 0x18F                    
    14691    3962         30FF                  MOVLW 0xFF                    
    14692    3963         00FB                  MOVWF 0x1FB                   
    14693    3964         3003                  MOVLW 0x3                     
    14694    3965         07E9                  ADDWF 0x1E9, F                
    14695    3966         3002                  MOVLW 0x2                     
    14696    3967         0AE7                  INCF 0x1E7, F                 
    14697    3968         0267                  SUBWF 0x1E7, W                
    14698    3969         1C03                  BTFSS 0x183, 0x0              
    14699    396A         2932                  GOTO 0x132                    
    14700    396B         01B2                  CLRF 0x1B2                    
    14701    396C         0008                  RETURN                        
    14702    396D         0868                  MOVF 0x1E8, W                 
    14703    396E         3A3C                  XORLW 0x3C                    
    14704    396F         1903                  BTFSC 0x183, 0x2              
    14705    3970         291B                  GOTO 0x11B                    
    14706    3971         3A41                  XORLW 0x41                    
    14707    3972         1903                  BTFSC 0x183, 0x2              
    14708    3973         2923                  GOTO 0x123                    
    14709    3974         3AC2                  XORLW 0xC2                    
    14710    3975         1903                  BTFSC 0x183, 0x2              
    14711    3976         297B                  GOTO 0x17B                    
    14712    3977         3A41                  XORLW 0x41                    
    14713    3978         1903                  BTFSC 0x183, 0x2              
    14714    3979         297B                  GOTO 0x17B                    
    14715    397A         292F                  GOTO 0x12F                    
    14716    397B         0008                  RETURN                        
    14717    397C         00F7                  MOVWF 0x1F7                   
    14718    397D         3005                  MOVLW 0x5                     
    14719    397E         01A4                  CLRF 0x1A4                    
    14720    397F         00B2                  MOVWF 0x1B2                   
    14721    3980         0865                  MOVF 0x1E5, W                 
    14722    3981         00A1                  MOVWF 0x1A1                   
    14723    3982         0865                  MOVF 0x1E5, W                 
    14724    3983         00AC                  MOVWF 0x1AC                   
    14725    3984         0877                  MOVF 0x1F7, W                 
    14726    3985         00B4                  MOVWF 0x1B4                   
    14727    3986         0865                  MOVF 0x1E5, W                 
    14728    3987         00F4                  MOVWF 0x1F4                   
    14729    3988         0864                  MOVF 0x1E4, W                 
    14730    3989         21B6                  CALL 0x1B6                    
    14731    398A         31B8                  MOVLP 0x38                    
    14732    398B         082C                  MOVF 0x1AC, W                 
    14733    398C         00B3                  MOVWF 0x1B3                   
    14734    398D         303D                  MOVLW 0x3D                    
    14735    398E         2998                  GOTO 0x198                    
    14736    398F         00F3                  MOVWF 0x1F3                   
    14737    3990         0872                  MOVF 0x1F2, W                 
    14738    3991         00AC                  MOVWF 0x1AC                   
    14739    3992         00B3                  MOVWF 0x1B3                   
    14740    3993         0873                  MOVF 0x1F3, W                 
    14741    3994         00B4                  MOVWF 0x1B4                   
    14742    3995         3003                  MOVLW 0x3                     
    14743    3996         00B2                  MOVWF 0x1B2                   
    14744    3997         0008                  RETURN                        
    14745    3998         00F2                  MOVWF 0x1F2                   
    14746    3999         3005                  MOVLW 0x5                     
    14747    399A         00B2                  MOVWF 0x1B2                   
    14748    399B         0872                  MOVF 0x1F2, W                 
    14749    399C         0086                  MOVWF 0x186                   
    14750    399D         0187                  CLRF 0x187                    
    14751    399E         0801                  MOVF 0x181, W                 
    14752    399F         00A3                  MOVWF 0x1A3                   
    14753    39A0         0023                  MOVLB 0x3                     
    14754    39A1         1E9E                  BTFSS TXSTA, 0x5              
    14755    39A2         169E                  BSF TXSTA, 0x5                
    14756    39A3         0872                  MOVF 0x1F2, W                 
    14757    39A4         0086                  MOVWF 0x186                   
    14758    39A5         0801                  MOVF 0x181, W                 
    14759    39A6         009A                  MOVWF TXREG                   
    14760    39A7         0A72                  INCF 0x1F2, W                 
    14761    39A8         0020                  MOVLB 0x0                     
    14762    39A9         00A2                  MOVWF 0x22                    
    14763    39AA         03A1                  DECF 0x21, F                  
    14764    39AB         082E                  MOVF 0x2E, W                  
    14765    39AC         39FC                  ANDLW 0xFC                    
    14766    39AD         3801                  IORLW 0x1                     
    14767    39AE         00AE                  MOVWF 0x2E                    
    14768    39AF         08A1                  MOVF 0x21, F                  
    14769    39B0         1D03                  BTFSS STATUS, 0x2             
    14770    39B1         0008                  RETURN                        
    14771    39B2         39FC                  ANDLW 0xFC                    
    14772    39B3         3802                  IORLW 0x2                     
    14773    39B4         00AE                  MOVWF 0x2E                    
    14774    39B5         0008                  RETURN                        
    14775    39B6         00DF                  MOVWF 0x5F                    
    14776    39B7         01E0                  CLRF 0x60                     
    14777    39B8         01E1                  CLRF 0x61                     
    14778    39B9         01DE                  CLRF 0x5E                     
    14779    39BA         0834                  MOVF 0x34, W                  
    14780    39BB         3A14                  XORLW 0x14                    
    14781    39BC         1D03                  BTFSS STATUS, 0x2             
    14782    39BD         29C1                  GOTO 0x1C1                    
    14783    39BE         083C                  MOVF 0x3C, W                  
    14784    39BF         00E0                  MOVWF 0x60                    
    14785    39C0         01E1                  CLRF 0x61                     
    14786    39C1         01F2                  CLRF 0x72                     
    14787    39C2         01F3                  CLRF 0x73                     
    14788    39C3         0873                  MOVF 0x73, W                  
    14789    39C4         00A7                  MOVWF 0x27                    
    14790    39C5         0872                  MOVF 0x72, W                  
    14791    39C6         00A6                  MOVWF 0x26                    
    14792    39C7         01E2                  CLRF 0x62                     
    14793    39C8         01E3                  CLRF 0x63                     
    14794    39C9         0874                  MOVF 0x74, W                  
    14795    39CA         00F5                  MOVWF 0x75                    
    14796    39CB         01F6                  CLRF 0x76                     
    14797    39CC         0876                  MOVF 0x76, W                  
    14798    39CD         0263                  SUBWF 0x63, W                 
    14799    39CE         1D03                  BTFSS STATUS, 0x2             
    14800    39CF         29D2                  GOTO 0x1D2                    
    14801    39D0         0875                  MOVF 0x75, W                  
    14802    39D1         0262                  SUBWF 0x62, W                 
    14803    39D2         1803                  BTFSC STATUS, 0x0             
    14804    39D3         29F1                  GOTO 0x1F1                    
    14805    39D4         0862                  MOVF 0x62, W                  
    14806    39D5         3E3D                  ADDLW 0x3D                    
    14807    39D6         0086                  MOVWF FSR1                    
    14808    39D7         0187                  CLRF FSR1H                    
    14809    39D8         0862                  MOVF 0x62, W                  
    14810    39D9         075F                  ADDWF 0x5F, W                 
    14811    39DA         00F5                  MOVWF 0x75                    
    14812    39DB         0084                  MOVWF FSR0                    
    14813    39DC         0185                  CLRF FSR0H                    
    14814    39DD         0800                  MOVF INDF0, W                 
    14815    39DE         0081                  MOVWF INDF1                   
    14816    39DF         0862                  MOVF 0x62, W                  
    14817    39E0         075F                  ADDWF 0x5F, W                 
    14818    39E1         00F5                  MOVWF 0x75                    
    14819    39E2         0086                  MOVWF FSR1                    
    14820    39E3         0801                  MOVF INDF1, W                 
    14821    39E4         07E0                  ADDWF 0x60, F                 
    14822    39E5         1803                  BTFSC STATUS, 0x0             
    14823    39E6         0AE1                  INCF 0x61, F                  
    14824    39E7         0861                  MOVF 0x61, W                  
    14825    39E8         00DE                  MOVWF 0x5E                    
    14826    39E9         07E0                  ADDWF 0x60, F                 
    14827    39EA         1803                  BTFSC STATUS, 0x0             
    14828    39EB         0AE1                  INCF 0x61, F                  
    14829    39EC         01E1                  CLRF 0x61                     
    14830    39ED         0AE2                  INCF 0x62, F                  
    14831    39EE         1903                  BTFSC STATUS, 0x2             
    14832    39EF         0AE3                  INCF 0x63, F                  
    14833    39F0         29C9                  GOTO 0x1C9                    
    14834    39F1         2335                  CALL 0x335                    
    14835    39F2         0960                  COMF 0x60, W                  
    14836    39F3         00A5                  MOVWF 0x25                    
    14837    39F4         0008                  RETURN                        
    14838    39F5         2A37                  GOTO 0x237                    
    14839    39F6         231A                  CALL 0x31A                    
    14840    39F7         31B8                  MOVLP 0x38                    
    14841    39F8         01F2                  CLRF 0x72                     
    14842    39F9         01F3                  CLRF 0x73                     
    14843    39FA         232F                  CALL 0x32F                    
    14844    39FB         31B8                  MOVLP 0x38                    
    14845    39FC         082C                  MOVF 0x2C, W                  
    14846    39FD         0277                  SUBWF 0x77, W                 
    14847    39FE         1803                  BTFSC STATUS, 0x0             
    14848    39FF         2A05                  GOTO 0x205                    
    14849    3A00         0877                  MOVF 0x77, W                  
    14850    3A01         3EA0                  ADDLW 0xA0                    
    14851    3A02         2325                  CALL 0x325                    
    14852    3A03         31B8                  MOVLP 0x38                    
    14853    3A04         29FC                  GOTO 0x1FC                    
    14854    3A05         2335                  CALL 0x335                    
    14855    3A06         0008                  RETURN                        
    14856    3A07         231A                  CALL 0x31A                    
    14857    3A08         31B8                  MOVLP 0x38                    
    14858    3A09         01F2                  CLRF 0x72                     
    14859    3A0A         01F3                  CLRF 0x73                     
    14860    3A0B         232F                  CALL 0x32F                    
    14861    3A0C         31B8                  MOVLP 0x38                    
    14862    3A0D         082C                  MOVF 0x2C, W                  
    14863    3A0E         0277                  SUBWF 0x77, W                 
    14864    3A0F         1803                  BTFSC STATUS, 0x0             
    14865    3A10         2A1F                  GOTO 0x21F                    
    14866    3A11         087B                  MOVF 0x7B, W                  
    14867    3A12         00F4                  MOVWF 0x74                    
    14868    3A13         3048                  MOVLW 0x48                    
    14869    3A14         35F4                  LSLF 0x74, F                  
    14870    3A15         35F4                  LSLF 0x74, F                  
    14871    3A16         35F4                  LSLF 0x74, F                  
    14872    3A17         0774                  ADDWF 0x74, W                 
    14873    3A18         00F5                  MOVWF 0x75                    
    14874    3A19         0877                  MOVF 0x77, W                  
    14875    3A1A         0775                  ADDWF 0x75, W                 
    14876    3A1B         00F6                  MOVWF 0x76                    
    14877    3A1C         2325                  CALL 0x325                    
    14878    3A1D         31B8                  MOVLP 0x38                    
    14879    3A1E         2A0D                  GOTO 0x20D                    
    14880    3A1F         2335                  CALL 0x335                    
    14881    3A20         31B8                  MOVLP 0x38                    
    14882    3A21         087B                  MOVF 0x7B, W                  
    14883    3A22         077B                  ADDWF 0x7B, W                 
    14884    3A23         077B                  ADDWF 0x7B, W                 
    14885    3A24         3E59                  ADDLW 0x59                    
    14886    3A25         0086                  MOVWF FSR1                    
    14887    3A26         0187                  CLRF FSR1H                    
    14888    3A27         1481                  BSF INDF1, 0x1                
    14889    3A28         2A2F                  GOTO 0x22F                    
    14890    3A29         30FF                  MOVLW 0xFF                    
    14891    3A2A         00C7                  MOVWF 0x47                    
    14892    3A2B         0008                  RETURN                        
    14893    3A2C         30FF                  MOVLW 0xFF                    
    14894    3A2D         00C6                  MOVWF 0x46                    
    14895    3A2E         0008                  RETURN                        
    14896    3A2F         087B                  MOVF 0x7B, W                  
    14897    3A30         3A00                  XORLW 0x0                     
    14898    3A31         1903                  BTFSC STATUS, 0x2             
    14899    3A32         2A29                  GOTO 0x229                    
    14900    3A33         3A01                  XORLW 0x1                     
    14901    3A34         1903                  BTFSC STATUS, 0x2             
    14902    3A35         2A2C                  GOTO 0x22C                    
    14903    3A36         2A3F                  GOTO 0x23F                    
    14904    3A37         087B                  MOVF 0x7B, W                  
    14905    3A38         3AFB                  XORLW 0xFB                    
    14906    3A39         1903                  BTFSC STATUS, 0x2             
    14907    3A3A         29F6                  GOTO 0x1F6                    
    14908    3A3B         3A04                  XORLW 0x4                     
    14909    3A3C         1903                  BTFSC STATUS, 0x2             
    14910    3A3D         2A3F                  GOTO 0x23F                    
    14911    3A3E         2A07                  GOTO 0x207                    
    14912    3A3F         0008                  RETURN                        
    14913    3A40         231A                  CALL 0x31A                    
    14914    3A41         31B8                  MOVLP 0x38                    
    14915    3A42         085B                  MOVF 0x5B, W                  
    14916    3A43         067A                  XORWF 0x7A, W                 
    14917    3A44         1D03                  BTFSS STATUS, 0x2             
    14918    3A45         0008                  RETURN                        
    14919    3A46         13D2                  BCF 0x52, 0x7                 
    14920    3A47         14DC                  BSF 0x5C, 0x1                 
    14921    3A48         0008                  RETURN                        
    14922    3A49         2A80                  GOTO 0x280                    
    14923    3A4A         228A                  CALL 0x28A                    
    14924    3A4B         31B8                  MOVLP 0x38                    
    14925    3A4C         0872                  MOVF 0x72, W                  
    14926    3A4D         00F4                  MOVWF 0x74                    
    14927    3A4E         0873                  MOVF 0x73, W                  
    14928    3A4F         00F5                  MOVWF 0x75                    
    14929    3A50         3007                  MOVLW 0x7                     
    14930    3A51         36F5                  LSRF 0x75, F                  
    14931    3A52         0CF4                  RRF 0x74, F                   
    14932    3A53         0B89                  DECFSZ WREG, F                
    14933    3A54         2A51                  GOTO 0x251                    
    14934    3A55         0874                  MOVF 0x74, W                  
    14935    3A56         0020                  MOVLB 0x0                     
    14936    3A57         00B8                  MOVWF 0x38                    
    14937    3A58         3007                  MOVLW 0x7                     
    14938    3A59         05B8                  ANDWF 0x38, F                 
    14939    3A5A         3040                  MOVLW 0x40                    
    14940    3A5B         2293                  CALL 0x293                    
    14941    3A5C         31B8                  MOVLP 0x38                    
    14942    3A5D         0020                  MOVLB 0x0                     
    14943    3A5E         00B5                  MOVWF 0x35                    
    14944    3A5F         22C4                  CALL 0x2C4                    
    14945    3A60         31B8                  MOVLP 0x38                    
    14946    3A61         00BA                  MOVWF 0x3A                    
    14947    3A62         2A88                  GOTO 0x288                    
    14948    3A63         22C4                  CALL 0x2C4                    
    14949    3A64         31B8                  MOVLP 0x38                    
    14950    3A65         00B9                  MOVWF 0x39                    
    14951    3A66         30F8                  MOVLW 0xF8                    
    14952    3A67         05D1                  ANDWF 0x51, F                 
    14953    3A68         0838                  MOVF 0x38, W                  
    14954    3A69         04D1                  IORWF 0x51, F                 
    14955    3A6A         3007                  MOVLW 0x7                     
    14956    3A6B         14DC                  BSF 0x5C, 0x1                 
    14957    3A6C         05D1                  ANDWF 0x51, F                 
    14958    3A6D         0835                  MOVF 0x35, W                  
    14959    3A6E         0709                  ADDWF WREG, W                 
    14960    3A6F         0709                  ADDWF WREG, W                 
    14961    3A70         0709                  ADDWF WREG, W                 
    14962    3A71         04D1                  IORWF 0x51, F                 
    14963    3A72         14DC                  BSF 0x5C, 0x1                 
    14964    3A73         0839                  MOVF 0x39, W                  
    14965    3A74         063A                  XORWF 0x3A, W                 
    14966    3A75         1D03                  BTFSS STATUS, 0x2             
    14967    3A76         2A7C                  GOTO 0x27C                    
    14968    3A77         01D0                  CLRF 0x50                     
    14969    3A78         0839                  MOVF 0x39, W                  
    14970    3A79         04D0                  IORWF 0x50, F                 
    14971    3A7A         14DC                  BSF 0x5C, 0x1                 
    14972    3A7B         2A88                  GOTO 0x288                    
    14973    3A7C         30FF                  MOVLW 0xFF                    
    14974    3A7D         01D0                  CLRF 0x50                     
    14975    3A7E         00D0                  MOVWF 0x50                    
    14976    3A7F         2A7A                  GOTO 0x27A                    
    14977    3A80         0836                  MOVF 0x36, W                  
    14978    3A81         3A22                  XORLW 0x22                    
    14979    3A82         1903                  BTFSC STATUS, 0x2             
    14980    3A83         2A4A                  GOTO 0x24A                    
    14981    3A84         3A0E                  XORLW 0xE                     
    14982    3A85         1903                  BTFSC STATUS, 0x2             
    14983    3A86         2A63                  GOTO 0x263                    
    14984    3A87         2A88                  GOTO 0x288                    
    14985    3A88         0AB6                  INCF 0x36, F                  
    14986    3A89         0008                  RETURN                        
    14987    3A8A         0021                  MOVLB 0x1                     
    14988    3A8B         149D                  BSF ADCON0, 0x1               
    14989    3A8C         189D                  BTFSC ADCON0, 0x1             
    14990    3A8D         2A8C                  GOTO 0x28C                    
    14991    3A8E         081C                  MOVF ADRESH, W                
    14992    3A8F         00F3                  MOVWF 0xF3                    
    14993    3A90         081B                  MOVF ADRES, W                 
    14994    3A91         00F2                  MOVWF 0xF2                    
    14995    3A92         0008                  RETURN                        
    14996    3A93         00F2                  MOVWF 0xF2                    
    14997    3A94         0023                  MOVLB 0x3                     
    14998    3A95         0091                  MOVWF EEADR                   
    14999    3A96         0192                  CLRF EEADRH                   
    15000    3A97         1315                  BCF EECON1, 0x6               
    15001    3A98         1395                  BCF EECON1, 0x7               
    15002    3A99         1415                  BSF EECON1, 0x0               
    15003    3A9A         0813                  MOVF EEDAT, W                 
    15004    3A9B         0008                  RETURN                        
    15005    3A9C         22C1                  CALL 0x2C1                    
    15006    3A9D         31B8                  MOVLP 0x38                    
    15007    3A9E         0021                  MOVLB 0x1                     
    15008    3A9F         3045                  MOVLW 0x45                    
    15009    3AA0         01B0                  CLRF 0xB0                     
    15010    3AA1         0AB0                  INCF 0xB0, F                  
    15011    3AA2         01B6                  CLRF 0xB6                     
    15012    3AA3         0AB6                  INCF 0xB6, F                  
    15013    3AA4         00B1                  MOVWF 0xB1                    
    15014    3AA5         3052                  MOVLW 0x52                    
    15015    3AA6         00B2                  MOVWF 0xB2                    
    15016    3AA7         3041                  MOVLW 0x41                    
    15017    3AA8         01B3                  CLRF 0xB3                     
    15018    3AA9         0AB3                  INCF 0xB3, F                  
    15019    3AAA         01B4                  CLRF 0xB4                     
    15020    3AAB         00B5                  MOVWF 0xB5                    
    15021    3AAC         01F2                  CLRF 0xF2                     
    15022    3AAD         0872                  MOVF 0xF2, W                  
    15023    3AAE         3EA0                  ADDLW 0xA0                    
    15024    3AAF         0086                  MOVWF 0x86                    
    15025    3AB0         30FF                  MOVLW 0xFF                    
    15026    3AB1         0187                  CLRF 0x87                     
    15027    3AB2         0081                  MOVWF 0x81                    
    15028    3AB3         0872                  MOVF 0xF2, W                  
    15029    3AB4         3EA8                  ADDLW 0xA8                    
    15030    3AB5         0086                  MOVWF 0x86                    
    15031    3AB6         30FF                  MOVLW 0xFF                    
    15032    3AB7         0081                  MOVWF 0x81                    
    15033    3AB8         3008                  MOVLW 0x8                     
    15034    3AB9         0AF2                  INCF 0xF2, F                  
    15035    3ABA         0272                  SUBWF 0xF2, W                 
    15036    3ABB         1C03                  BTFSS 0x83, 0x0               
    15037    3ABC         2AAD                  GOTO 0x2AD                    
    15038    3ABD         0020                  MOVLB 0x0                     
    15039    3ABE         01A8                  CLRF 0x28                     
    15040    3ABF         01A9                  CLRF 0x29                     
    15041    3AC0         0008                  RETURN                        
    15042    3AC1         0020                  MOVLB 0x0                     
    15043    3AC2         01B2                  CLRF 0x32                     
    15044    3AC3         2901                  GOTO 0x101                    
    15045    3AC4         3000                  MOVLW 0x0                     
    15046    3AC5         180D                  BTFSC PORTB, 0x0              
    15047    3AC6         3001                  MOVLW 0x1                     
    15048    3AC7         00F4                  MOVWF 0x74                    
    15049    3AC8         0637                  XORWF 0x37, W                 
    15050    3AC9         39FE                  ANDLW 0xFE                    
    15051    3ACA         0674                  XORWF 0x74, W                 
    15052    3ACB         00B7                  MOVWF 0x37                    
    15053    3ACC         3000                  MOVLW 0x0                     
    15054    3ACD         188D                  BTFSC PORTB, 0x1              
    15055    3ACE         3001                  MOVLW 0x1                     
    15056    3ACF         00F4                  MOVWF 0x74                    
    15057    3AD0         0DF4                  RLF 0x74, F                   
    15058    3AD1         0837                  MOVF 0x37, W                  
    15059    3AD2         0674                  XORWF 0x74, W                 
    15060    3AD3         39FD                  ANDLW 0xFD                    
    15061    3AD4         0674                  XORWF 0x74, W                 
    15062    3AD5         00B7                  MOVWF 0x37                    
    15063    3AD6         3000                  MOVLW 0x0                     
    15064    3AD7         190D                  BTFSC PORTB, 0x2              
    15065    3AD8         3001                  MOVLW 0x1                     
    15066    3AD9         00F4                  MOVWF 0x74                    
    15067    3ADA         0DF4                  RLF 0x74, F                   
    15068    3ADB         0DF4                  RLF 0x74, F                   
    15069    3ADC         0837                  MOVF 0x37, W                  
    15070    3ADD         0674                  XORWF 0x74, W                 
    15071    3ADE         39FB                  ANDLW 0xFB                    
    15072    3ADF         0674                  XORWF 0x74, W                 
    15073    3AE0         00B7                  MOVWF 0x37                    
    15074    3AE1         3000                  MOVLW 0x0                     
    15075    3AE2         198D                  BTFSC PORTB, 0x3              
    15076    3AE3         3001                  MOVLW 0x1                     
    15077    3AE4         00F4                  MOVWF 0x74                    
    15078    3AE5         0DF4                  RLF 0x74, F                   
    15079    3AE6         0DF4                  RLF 0x74, F                   
    15080    3AE7         0DF4                  RLF 0x74, F                   
    15081    3AE8         0837                  MOVF 0x37, W                  
    15082    3AE9         0674                  XORWF 0x74, W                 
    15083    3AEA         39F7                  ANDLW 0xF7                    
    15084    3AEB         0674                  XORWF 0x74, W                 
    15085    3AEC         00B7                  MOVWF 0x37                    
    15086    3AED         3000                  MOVLW 0x0                     
    15087    3AEE         1B8D                  BTFSC PORTB, 0x7              
    15088    3AEF         3001                  MOVLW 0x1                     
    15089    3AF0         00F4                  MOVWF 0x74                    
    15090    3AF1         0EF4                  SWAPF 0x74, F                 
    15091    3AF2         0837                  MOVF 0x37, W                  
    15092    3AF3         0674                  XORWF 0x74, W                 
    15093    3AF4         39EF                  ANDLW 0xEF                    
    15094    3AF5         0674                  XORWF 0x74, W                 
    15095    3AF6         00B7                  MOVWF 0x37                    
    15096    3AF7         3000                  MOVLW 0x0                     
    15097    3AF8         1B0D                  BTFSC PORTB, 0x6              
    15098    3AF9         3001                  MOVLW 0x1                     
    15099    3AFA         00F4                  MOVWF 0x74                    
    15100    3AFB         0EF4                  SWAPF 0x74, F                 
    15101    3AFC         0DF4                  RLF 0x74, F                   
    15102    3AFD         0837                  MOVF 0x37, W                  
    15103    3AFE         0674                  XORWF 0x74, W                 
    15104    3AFF         39DF                  ANDLW 0xDF                    
    15105    3B00         0674                  XORWF 0x74, W                 
    15106    3B01         00B7                  MOVWF 0x37                    
    15107    3B02         3000                  MOVLW 0x0                     
    15108    3B03         1990                  BTFSC PORTE, 0x3              
    15109    3B04         3001                  MOVLW 0x1                     
    15110    3B05         00F4                  MOVWF 0x74                    
    15111    3B06         0EF4                  SWAPF 0x74, F                 
    15112    3B07         0DF4                  RLF 0x74, F                   
    15113    3B08         0DF4                  RLF 0x74, F                   
    15114    3B09         0837                  MOVF 0x37, W                  
    15115    3B0A         0674                  XORWF 0x74, W                 
    15116    3B0B         39BF                  ANDLW 0xBF                    
    15117    3B0C         0674                  XORWF 0x74, W                 
    15118    3B0D         00B7                  MOVWF 0x37                    
    15119    3B0E         3000                  MOVLW 0x0                     
    15120    3B0F         188E                  BTFSC PORTC, 0x1              
    15121    3B10         3001                  MOVLW 0x1                     
    15122    3B11         00F4                  MOVWF 0x74                    
    15123    3B12         0CF4                  RRF 0x74, F                   
    15124    3B13         0CF4                  RRF 0x74, F                   
    15125    3B14         0837                  MOVF 0x37, W                  
    15126    3B15         0674                  XORWF 0x74, W                 
    15127    3B16         397F                  ANDLW 0x7F                    
    15128    3B17         0674                  XORWF 0x74, W                 
    15129    3B18         00B7                  MOVWF 0x37                    
    15130    3B19         0008                  RETURN                        
    15131    3B1A         0829                  MOVF 0x29, W                  
    15132    3B1B         39FF                  ANDLW 0xFF                    
    15133    3B1C         1D03                  BTFSS STATUS, 0x2             
    15134    3B1D         1528                  BSF 0x28, 0x2                 
    15135    3B1E         0829                  MOVF 0x29, W                  
    15136    3B1F         067A                  XORWF 0x7A, W                 
    15137    3B20         3900                  ANDLW 0x0                     
    15138    3B21         067A                  XORWF 0x7A, W                 
    15139    3B22         00A9                  MOVWF 0x29                    
    15140    3B23         14A8                  BSF 0x28, 0x1                 
    15141    3B24         0008                  RETURN                        
    15142    3B25         0086                  MOVWF FSR1                    
    15143    3B26         0187                  CLRF FSR1H                    
    15144    3B27         0877                  MOVF 0x77, W                  
    15145    3B28         3E3D                  ADDLW 0x3D                    
    15146    3B29         0084                  MOVWF FSR0                    
    15147    3B2A         0185                  CLRF FSR0H                    
    15148    3B2B         0800                  MOVF INDF0, W                 
    15149    3B2C         0081                  MOVWF INDF1                   
    15150    3B2D         0AF7                  INCF 0x77, F                  
    15151    3B2E         0008                  RETURN                        
    15152    3B2F         0873                  MOVF 0x73, W                  
    15153    3B30         00A7                  MOVWF 0x27                    
    15154    3B31         0872                  MOVF 0x72, W                  
    15155    3B32         00A6                  MOVWF 0x26                    
    15156    3B33         01F7                  CLRF 0x77                     
    15157    3B34         0008                  RETURN                        
    15158    3B35         0827                  MOVF 0x27, W                  
    15159    3B36         00F3                  MOVWF 0x73                    
    15160    3B37         0826                  MOVF 0x26, W                  
    15161    3B38         00F2                  MOVWF 0x72                    
    15162    3B39         0008                  RETURN                        
    15163    3B3A         0023                  MOVLB 0x3                     
    15164    3B3B         081D                  MOVF RCSTA, W                 
    15165    3B3C         0020                  MOVLB 0x0                     
    15166    3B3D         00B1                  MOVWF 0x31                    
    15167    3B3E         3006                  MOVLW 0x6                     
    15168    3B3F         05B1                  ANDWF 0x31, F                 
    15169    3B40         0023                  MOVLB 0x3                     
    15170    3B41         0819                  MOVF RCREG, W                 
    15171    3B42         0020                  MOVLB 0x0                     
    15172    3B43         00AF                  MOVWF 0x2F                    
    15173    3B44         08B1                  MOVF 0x31, F                  
    15174    3B45         1D03                  BTFSS STATUS, 0x2             
    15175    3B46         2B59                  GOTO 0x359                    
    15176    3B47         0832                  MOVF 0x32, W                  
    15177    3B48         3A05                  XORLW 0x5                     
    15178    3B49         1D03                  BTFSS STATUS, 0x2             
    15179    3B4A         2B57                  GOTO 0x357                    
    15180    3B4B         0823                  MOVF 0x23, W                  
    15181    3B4C         062F                  XORWF 0x2F, W                 
    15182    3B4D         1903                  BTFSC STATUS, 0x2             
    15183    3B4E         2B56                  GOTO 0x356                    
    15184    3B4F         30FC                  MOVLW 0xFC                    
    15185    3B50         01B2                  CLRF 0x32                     
    15186    3B51         05AE                  ANDWF 0x2E, F                 
    15187    3B52         13D2                  BCF 0x52, 0x7                 
    15188    3B53         17D2                  BSF 0x52, 0x7                 
    15189    3B54         14DC                  BSF 0x5C, 0x1                 
    15190    3B55         0008                  RETURN                        
    15191    3B56         2B7F                  GOTO 0x37F                    
    15192    3B57         1430                  BSF 0x30, 0x0                 
    15193    3B58         0008                  RETURN                        
    15194    3B59         1CB1                  BTFSS 0x31, 0x1               
    15195    3B5A         2B65                  GOTO 0x365                    
    15196    3B5B         0023                  MOVLB 0x3                     
    15197    3B5C         121D                  BCF RCSTA, 0x4                
    15198    3B5D         0020                  MOVLB 0x0                     
    15199    3B5E         01B2                  CLRF 0x32                     
    15200    3B5F         13D2                  BCF 0x52, 0x7                 
    15201    3B60         17D2                  BSF 0x52, 0x7                 
    15202    3B61         14DC                  BSF 0x5C, 0x1                 
    15203    3B62         0023                  MOVLB 0x3                     
    15204    3B63         161D                  BSF RCSTA, 0x4                
    15205    3B64         0008                  RETURN                        
    15206    3B65         1D31                  BTFSS 0x1B1, 0x2              
    15207    3B66         0008                  RETURN                        
    15208    3B67         08AF                  MOVF 0x1AF, F                 
    15209    3B68         1D03                  BTFSS 0x183, 0x2              
    15210    3B69         2B72                  GOTO 0x372                    
    15211    3B6A         01B2                  CLRF 0x1B2                    
    15212    3B6B         0AB2                  INCF 0x1B2, F                 
    15213    3B6C         0B2A                  DECFSZ 0x1AA, W               
    15214    3B6D         0008                  RETURN                        
    15215    3B6E         3055                  MOVLW 0x55                    
    15216    3B6F         0023                  MOVLB 0x3                     
    15217    3B70         009A                  MOVWF TXREG                   
    15218    3B71         0008                  RETURN                        
    15219    3B72         0832                  MOVF 0x1B2, W                 
    15220    3B73         1903                  BTFSC 0x183, 0x2              
    15221    3B74         0008                  RETURN                        
    15222    3B75         3003                  MOVLW 0x3                     
    15223    3B76         0232                  SUBWF 0x1B2, W                
    15224    3B77         1C03                  BTFSS 0x183, 0x0              
    15225    3B78         2B7C                  GOTO 0x37C                    
    15226    3B79         13D2                  BCF 0x1D2, 0x7                
    15227    3B7A         17D2                  BSF 0x1D2, 0x7                
    15228    3B7B         14DC                  BSF 0x1DC, 0x1                
    15229    3B7C         01B2                  CLRF 0x1B2                    
    15230    3B7D         01AA                  CLRF 0x1AA                    
    15231    3B7E         0008                  RETURN                        
    15232    3B7F         082E                  MOVF 0x1AE, W                 
    15233    3B80         3903                  ANDLW 0x3                     
    15234    3B81         3A01                  XORLW 0x1                     
    15235    3B82         1D03                  BTFSS 0x183, 0x2              
    15236    3B83         2B87                  GOTO 0x387                    
    15237    3B84         0822                  MOVF 0x1A2, W                 
    15238    3B85         238E                  CALL 0x38E                    
    15239    3B86         0008                  RETURN                        
    15240    3B87         082E                  MOVF 0x1AE, W                 
    15241    3B88         3903                  ANDLW 0x3                     
    15242    3B89         3A02                  XORLW 0x2                     
    15243    3B8A         1D03                  BTFSS 0x183, 0x2              
    15244    3B8B         0008                  RETURN                        
    15245    3B8C         0825                  MOVF 0x1A5, W                 
    15246    3B8D         2BAC                  GOTO 0x3AC                    
    15247    3B8E         00F0                  MOVWF 0x1F0                   
    15248    3B8F         3005                  MOVLW 0x5                     
    15249    3B90         00B2                  MOVWF 0x1B2                   
    15250    3B91         0870                  MOVF 0x1F0, W                 
    15251    3B92         0086                  MOVWF 0x186                   
    15252    3B93         0187                  CLRF 0x187                    
    15253    3B94         0801                  MOVF 0x181, W                 
    15254    3B95         00A3                  MOVWF 0x1A3                   
    15255    3B96         0023                  MOVLB 0x3                     
    15256    3B97         1E9E                  BTFSS TXSTA, 0x5              
    15257    3B98         169E                  BSF TXSTA, 0x5                
    15258    3B99         0870                  MOVF 0x1F0, W                 
    15259    3B9A         0086                  MOVWF 0x186                   
    15260    3B9B         0801                  MOVF 0x181, W                 
    15261    3B9C         009A                  MOVWF TXREG                   
    15262    3B9D         0A70                  INCF 0x1F0, W                 
    15263    3B9E         0020                  MOVLB 0x0                     
    15264    3B9F         00A2                  MOVWF 0x22                    
    15265    3BA0         03A1                  DECF 0x21, F                  
    15266    3BA1         082E                  MOVF 0x2E, W                  
    15267    3BA2         39FC                  ANDLW 0xFC                    
    15268    3BA3         3801                  IORLW 0x1                     
    15269    3BA4         00AE                  MOVWF 0x2E                    
    15270    3BA5         08A1                  MOVF 0x21, F                  
    15271    3BA6         1D03                  BTFSS STATUS, 0x2             
    15272    3BA7         0008                  RETURN                        
    15273    3BA8         39FC                  ANDLW 0xFC                    
    15274    3BA9         3802                  IORLW 0x2                     
    15275    3BAA         00AE                  MOVWF 0x2E                    
    15276    3BAB         0008                  RETURN                        
    15277    3BAC         00F0                  MOVWF 0x70                    
    15278    3BAD         3006                  MOVLW 0x6                     
    15279    3BAE         00B2                  MOVWF 0x32                    
    15280    3BAF         0870                  MOVF 0x70, W                  
    15281    3BB0         0023                  MOVLB 0x3                     
    15282    3BB1         009A                  MOVWF TXREG                   
    15283    3BB2         1E9E                  BTFSS TXSTA, 0x5              
    15284    3BB3         169E                  BSF TXSTA, 0x5                
    15285    3BB4         0870                  MOVF 0x1F0, W                 
    15286    3BB5         0020                  MOVLB 0x0                     
    15287    3BB6         00A3                  MOVWF 0x23                    
    15288    3BB7         30FC                  MOVLW 0xFC                    
    15289    3BB8         05AE                  ANDWF 0x2E, F                 
    15290    3BB9         0008                  RETURN                        
    15291    3BBA         3400                  RETLW 0x0                     
    15292    3BBB         3400                  RETLW 0x0                     
    15293    3BBC         3400                  RETLW 0x0                     
    15294    3BBD         34FF                  RETLW 0xFF                    
    15295    3BBE         34FF                  RETLW 0xFF                    
    15296    3BBF         34FF                  RETLW 0xFF                    
    15297    3BC0         34FF                  RETLW 0xFF                    
    15298    3BC1         34FF                  RETLW 0xFF                    
    15299    3BC2         3400                  RETLW 0x0                     
    15300    3BC3         3400                  RETLW 0x0                     
    15301    3BC4         3400                  RETLW 0x0                     
    15302    3BC5         34FF                  RETLW 0xFF                    
    15303    3BC6         34FF                  RETLW 0xFF                    
    15304    3BC7         34FF                  RETLW 0xFF                    
    15305    3BC8         34FF                  RETLW 0xFF                    
    15306    3BC9         34FF                  RETLW 0xFF                    
    15307    3BCA         3411                  RETLW 0x11                    
    15308    3BCB         3480                  RETLW 0x80                    
    15309    3BCC         3403                  RETLW 0x3                     
    15310    3BCD         34C1                  RETLW 0xC1                    
    15311    3BCE         3481                  RETLW 0x81                    
    15312    3BCF         3403                  RETLW 0x3                     
    15313    3BD0         0064                  CLRWDT                        
    15314    3BD1         0180                  CLRF INDF0                    
    15315    3BD2         3101                  ADDFSR 0, 1                   
    15316    3BD3         0B89                  DECFSZ WREG, F                
    15317    3BD4         2BD1                  GOTO 0x3D1                    
    15318    3BD5         3400                  RETLW 0x0                     
    15319    3BD6         00FE                  MOVWF 0x7E                    
    15320    3BD7         0012                  MOVIW FSR0++                  
    15321    3BD8         001E                  MOVWI FSR1++                  
    15322    3BD9         0BFE                  DECFSZ 0x7E, F                
    15323    3BDA         2BD7                  GOTO 0x3D7                    
    15324    3BDB         3400                  RETLW 0x0                     
    15325    3BDC         01F2                  CLRF 0x72                     
    15326    3BDD         01F3                  CLRF 0x73                     
    15327    3BDE         0008                  RETURN                        
    15328    3BDF         0064                  CLRWDT                        
    15329    3BE0         0008                  RETURN                        
    15330    3BE1         0008                  RETURN                        
    15331    3BE2         0008                  RETURN                        
   